Archive member included because of file (symbol)

D:/Study/Raspberry/QNX/ide-4.7-workspace/Bsp_Rasp/src/hardware/startup/lib/arm/a.le\libstartup.a(_main.o)
                              main.o (shdr)
D:/Study/Raspberry/QNX/ide-4.7-workspace/Bsp_Rasp/src/hardware/startup/lib/arm/a.le\libstartup.a(add_interrupt.o)
                              init_intrinfo.o (add_interrupt_array)
D:/Study/Raspberry/QNX/ide-4.7-workspace/Bsp_Rasp/src/hardware/startup/lib/arm/a.le\libstartup.a(alloc_qtime.o)
                              init_qtime_bcm2835.o (alloc_qtime)
D:/Study/Raspberry/QNX/ide-4.7-workspace/Bsp_Rasp/src/hardware/startup/lib/arm/a.le\libstartup.a(board_init.o)
                              D:/Study/Raspberry/QNX/ide-4.7-workspace/Bsp_Rasp/src/hardware/startup/lib/arm/a.le\libstartup.a(_main.o) (board_init)
D:/Study/Raspberry/QNX/ide-4.7-workspace/Bsp_Rasp/src/hardware/startup/lib/arm/a.le\libstartup.a(callout_debug_bcm2835.o)
                              main.o (display_char_bcm2835)
D:/Study/Raspberry/QNX/ide-4.7-workspace/Bsp_Rasp/src/hardware/startup/lib/arm/a.le\libstartup.a(callout_interrupt_bcm2835.o)
                              init_intrinfo.o (interrupt_id_bcm2835_aic)
D:/Study/Raspberry/QNX/ide-4.7-workspace/Bsp_Rasp/src/hardware/startup/lib/arm/a.le\libstartup.a(callout_reboot_at91sam9xx.o)
                              main.o (reboot_at91sam9xx)
D:/Study/Raspberry/QNX/ide-4.7-workspace/Bsp_Rasp/src/hardware/startup/lib/arm/a.le\libstartup.a(callout_timer_bcm2835.o)
                              init_qtime_bcm2835.o (timer_load_bcm2835)
D:/Study/Raspberry/QNX/ide-4.7-workspace/Bsp_Rasp/src/hardware/startup/lib/arm/a.le\libstartup.a(callouts.o)
                              D:/Study/Raspberry/QNX/ide-4.7-workspace/Bsp_Rasp/src/hardware/startup/lib/arm/a.le\libstartup.a(add_interrupt.o) (callout_register_data)
D:/Study/Raspberry/QNX/ide-4.7-workspace/Bsp_Rasp/src/hardware/startup/lib/arm/a.le\libstartup.a(common_options.o)
                              main.o (select_debug)
D:/Study/Raspberry/QNX/ide-4.7-workspace/Bsp_Rasp/src/hardware/startup/lib/arm/a.le\libstartup.a(cpu_common_options.o)
                              D:/Study/Raspberry/QNX/ide-4.7-workspace/Bsp_Rasp/src/hardware/startup/lib/arm/a.le\libstartup.a(common_options.o) (cpu_handle_common_option)
D:/Study/Raspberry/QNX/ide-4.7-workspace/Bsp_Rasp/src/hardware/startup/lib/arm/a.le\libstartup.a(cpu_startup.o)
                              D:/Study/Raspberry/QNX/ide-4.7-workspace/Bsp_Rasp/src/hardware/startup/lib/arm/a.le\libstartup.a(_main.o) (cpu_startup)
D:/Study/Raspberry/QNX/ide-4.7-workspace/Bsp_Rasp/src/hardware/startup/lib/arm/a.le\libstartup.a(cstart.o)
                              D:/Study/Raspberry/QNX/ide-4.7-workspace/Bsp_Rasp/src/hardware/startup/lib/arm/a.le\libstartup.a(_main.o) (boot_args)
D:/Study/Raspberry/QNX/ide-4.7-workspace/Bsp_Rasp/src/hardware/startup/lib/arm/a.le\libstartup.a(debug.o)
                              main.o (print_syspage)
D:/Study/Raspberry/QNX/ide-4.7-workspace/Bsp_Rasp/src/hardware/startup/lib/arm/a.le\libstartup.a(getopt.o)
                              main.o (getopt)
D:/Study/Raspberry/QNX/ide-4.7-workspace/Bsp_Rasp/src/hardware/startup/lib/arm/a.le\libstartup.a(getsize.o)
                              D:/Study/Raspberry/QNX/ide-4.7-workspace/Bsp_Rasp/src/hardware/startup/lib/arm/a.le\libstartup.a(common_options.o) (getsize)
D:/Study/Raspberry/QNX/ide-4.7-workspace/Bsp_Rasp/src/hardware/startup/lib/arm/a.le\libstartup.a(hw_serbcm2835debug.o)
                              main.o (put_bcm2835)
D:/Study/Raspberry/QNX/ide-4.7-workspace/Bsp_Rasp/src/hardware/startup/lib/arm/a.le\libstartup.a(hwi_add_nanospin.o)
                              D:/Study/Raspberry/QNX/ide-4.7-workspace/Bsp_Rasp/src/hardware/startup/lib/arm/a.le\libstartup.a(common_options.o) (hwi_add_nanospin)
D:/Study/Raspberry/QNX/ide-4.7-workspace/Bsp_Rasp/src/hardware/startup/lib/arm/a.le\libstartup.a(hwi_alloc.o)
                              D:/Study/Raspberry/QNX/ide-4.7-workspace/Bsp_Rasp/src/hardware/startup/lib/arm/a.le\libstartup.a(hwi_add_nanospin.o) (hwi_alloc_tag)
D:/Study/Raspberry/QNX/ide-4.7-workspace/Bsp_Rasp/src/hardware/startup/lib/arm/a.le\libstartup.a(init_cacheattr.o)
                              main.o (init_cacheattr)
D:/Study/Raspberry/QNX/ide-4.7-workspace/Bsp_Rasp/src/hardware/startup/lib/arm/a.le\libstartup.a(init_cpuinfo.o)
                              main.o (init_cpuinfo)
D:/Study/Raspberry/QNX/ide-4.7-workspace/Bsp_Rasp/src/hardware/startup/lib/arm/a.le\libstartup.a(init_mmu.o)
                              main.o (init_mmu)
D:/Study/Raspberry/QNX/ide-4.7-workspace/Bsp_Rasp/src/hardware/startup/lib/arm/a.le\libstartup.a(init_system_private.o)
                              main.o (init_system_private)
D:/Study/Raspberry/QNX/ide-4.7-workspace/Bsp_Rasp/src/hardware/startup/lib/arm/a.le\libstartup.a(jtag.o)
                              D:/Study/Raspberry/QNX/ide-4.7-workspace/Bsp_Rasp/src/hardware/startup/lib/arm/a.le\libstartup.a(init_system_private.o) (jtag_store_syspage_addr)
D:/Study/Raspberry/QNX/ide-4.7-workspace/Bsp_Rasp/src/hardware/startup/lib/arm/a.le\libstartup.a(kprintf.o)
                              D:/Study/Raspberry/QNX/ide-4.7-workspace/Bsp_Rasp/src/hardware/startup/lib/arm/a.le\libstartup.a(common_options.o) (set_print_char)
D:/Study/Raspberry/QNX/ide-4.7-workspace/Bsp_Rasp/src/hardware/startup/lib/arm/a.le\libstartup.a(load_ifs.o)
                              D:/Study/Raspberry/QNX/ide-4.7-workspace/Bsp_Rasp/src/hardware/startup/lib/arm/a.le\libstartup.a(init_system_private.o) (load_ifs)
D:/Study/Raspberry/QNX/ide-4.7-workspace/Bsp_Rasp/src/hardware/startup/lib/arm/a.le\libstartup.a(map_callout_io.o)
                              D:/Study/Raspberry/QNX/ide-4.7-workspace/Bsp_Rasp/src/hardware/startup/lib/arm/a.le\libstartup.a(callout_debug_bcm2835.o) (callout_io_map)
D:/Study/Raspberry/QNX/ide-4.7-workspace/Bsp_Rasp/src/hardware/startup/lib/arm/a.le\libstartup.a(map_startup_io.o)
                              init_qtime_bcm2835.o (startup_io_map)
D:/Study/Raspberry/QNX/ide-4.7-workspace/Bsp_Rasp/src/hardware/startup/lib/arm/a.le\libstartup.a(map_startup_mem.o)
                              D:/Study/Raspberry/QNX/ide-4.7-workspace/Bsp_Rasp/src/hardware/startup/lib/arm/a.le\libstartup.a(init_system_private.o) (startup_memory_map)
D:/Study/Raspberry/QNX/ide-4.7-workspace/Bsp_Rasp/src/hardware/startup/lib/arm/a.le\libstartup.a(memfuncs.o)
                              D:/Study/Raspberry/QNX/ide-4.7-workspace/Bsp_Rasp/src/hardware/startup/lib/arm/a.le\libstartup.a(load_ifs.o) (copy_memory)
D:/Study/Raspberry/QNX/ide-4.7-workspace/Bsp_Rasp/src/hardware/startup/lib/arm/a.le\libstartup.a(memmove.o)
                              D:/Study/Raspberry/QNX/ide-4.7-workspace/Bsp_Rasp/src/hardware/startup/lib/arm/a.le\libstartup.a(callouts.o) (memmove)
D:/Study/Raspberry/QNX/ide-4.7-workspace/Bsp_Rasp/src/hardware/startup/lib/arm/a.le\libstartup.a(print_sysp.o)
                              D:/Study/Raspberry/QNX/ide-4.7-workspace/Bsp_Rasp/src/hardware/startup/lib/arm/a.le\libstartup.a(debug.o) (print_syspage_sections)
D:/Study/Raspberry/QNX/ide-4.7-workspace/Bsp_Rasp/src/hardware/startup/lib/arm/a.le\libstartup.a(ram.o)
                              D:/Study/Raspberry/QNX/ide-4.7-workspace/Bsp_Rasp/src/hardware/startup/lib/arm/a.le\libstartup.a(load_ifs.o) (find_ram)
D:/Study/Raspberry/QNX/ide-4.7-workspace/Bsp_Rasp/src/hardware/startup/lib/arm/a.le\libstartup.a(restore_ifs.o)
                              D:/Study/Raspberry/QNX/ide-4.7-workspace/Bsp_Rasp/src/hardware/startup/lib/arm/a.le\libstartup.a(init_system_private.o) (rifs_set_cksum)
D:/Study/Raspberry/QNX/ide-4.7-workspace/Bsp_Rasp/src/hardware/startup/lib/arm/a.le\libstartup.a(rtc_time.o)
                              D:/Study/Raspberry/QNX/ide-4.7-workspace/Bsp_Rasp/src/hardware/startup/lib/arm/a.le\libstartup.a(alloc_qtime.o) (rtc_time)
D:/Study/Raspberry/QNX/ide-4.7-workspace/Bsp_Rasp/src/hardware/startup/lib/arm/a.le\libstartup.a(startnext.o)
                              D:/Study/Raspberry/QNX/ide-4.7-workspace/Bsp_Rasp/src/hardware/startup/lib/arm/a.le\libstartup.a(_main.o) (startnext)
D:/Study/Raspberry/QNX/ide-4.7-workspace/Bsp_Rasp/src/hardware/startup/lib/arm/a.le\libstartup.a(startup_info.o)
                              D:/Study/Raspberry/QNX/ide-4.7-workspace/Bsp_Rasp/src/hardware/startup/lib/arm/a.le\libstartup.a(alloc_qtime.o) (find_startup_info)
D:/Study/Raspberry/QNX/ide-4.7-workspace/Bsp_Rasp/src/hardware/startup/lib/arm/a.le\libstartup.a(strings.o)
                              D:/Study/Raspberry/QNX/ide-4.7-workspace/Bsp_Rasp/src/hardware/startup/lib/arm/a.le\libstartup.a(init_system_private.o) (find_typed_string)
D:/Study/Raspberry/QNX/ide-4.7-workspace/Bsp_Rasp/src/hardware/startup/lib/arm/a.le\libstartup.a(strtoul.o)
                              D:/Study/Raspberry/QNX/ide-4.7-workspace/Bsp_Rasp/src/hardware/startup/lib/arm/a.le\libstartup.a(getsize.o) (strtopaddr)
D:/Study/Raspberry/QNX/ide-4.7-workspace/Bsp_Rasp/src/hardware/startup/lib/arm/a.le\libstartup.a(syspage_memory.o)
                              D:/Study/Raspberry/QNX/ide-4.7-workspace/Bsp_Rasp/src/hardware/startup/lib/arm/a.le\libstartup.a(_main.o) (write_syspage_memory)
D:/Study/Raspberry/QNX/ide-4.7-workspace/Bsp_Rasp/src/hardware/startup/lib/arm/a.le\libstartup.a(tweak_cmdline.o)
                              D:/Study/Raspberry/QNX/ide-4.7-workspace/Bsp_Rasp/src/hardware/startup/lib/arm/a.le\libstartup.a(_main.o) (tweak_cmdline)
D:/Study/Raspberry/QNX/ide-4.7-workspace/Bsp_Rasp/src/hardware/startup/lib/arm/a.le\libstartup.a(uncompress.o)
                              D:/Study/Raspberry/QNX/ide-4.7-workspace/Bsp_Rasp/src/hardware/startup/lib/arm/a.le\libstartup.a(load_ifs.o) (uncompress)
D:/Study/Raspberry/QNX/ide-4.7-workspace/Bsp_Rasp/src/hardware/startup/lib/arm/a.le\libstartup.a(uncompress_ucl.o)
                              D:/Study/Raspberry/QNX/ide-4.7-workspace/Bsp_Rasp/src/hardware/startup/lib/arm/a.le\libstartup.a(uncompress.o) (uncompress_ucl)
D:/Study/Raspberry/QNX/ide-4.7-workspace/Bsp_Rasp/src/hardware/startup/lib/arm/a.le\libstartup.a(arm_cache.o)
                              D:/Study/Raspberry/QNX/ide-4.7-workspace/Bsp_Rasp/src/hardware/startup/lib/arm/a.le\libstartup.a(init_cpuinfo.o) (arm_add_cache)
D:/Study/Raspberry/QNX/ide-4.7-workspace/Bsp_Rasp/src/hardware/startup/lib/arm/a.le\libstartup.a(arm_cpuspeed.o)
                              D:/Study/Raspberry/QNX/ide-4.7-workspace/Bsp_Rasp/src/hardware/startup/lib/arm/a.le\libstartup.a(init_cpuinfo.o) (arm_cpuspeed)
D:/Study/Raspberry/QNX/ide-4.7-workspace/Bsp_Rasp/src/hardware/startup/lib/arm/a.le\libstartup.a(arm_map.o)
                              D:/Study/Raspberry/QNX/ide-4.7-workspace/Bsp_Rasp/src/hardware/startup/lib/arm/a.le\libstartup.a(init_mmu.o) (arm_pdmap)
D:/Study/Raspberry/QNX/ide-4.7-workspace/Bsp_Rasp/src/hardware/startup/lib/arm/a.le\libstartup.a(arm_pte.o)
                              D:/Study/Raspberry/QNX/ide-4.7-workspace/Bsp_Rasp/src/hardware/startup/lib/arm/a.le\libstartup.a(init_mmu.o) (arm_pte_setup)
D:/Study/Raspberry/QNX/ide-4.7-workspace/Bsp_Rasp/src/hardware/startup/lib/arm/a.le\libstartup.a(armv_chip_detect.o)
                              D:/Study/Raspberry/QNX/ide-4.7-workspace/Bsp_Rasp/src/hardware/startup/lib/arm/a.le\libstartup.a(cpu_startup.o) (armv_chip_detect)
D:/Study/Raspberry/QNX/ide-4.7-workspace/Bsp_Rasp/src/hardware/startup/lib/arm/a.le\libstartup.a(armv_list.o)
                              D:/Study/Raspberry/QNX/ide-4.7-workspace/Bsp_Rasp/src/hardware/startup/lib/arm/a.le\libstartup.a(armv_chip_detect.o) (armv_list)
D:/Study/Raspberry/QNX/ide-4.7-workspace/Bsp_Rasp/src/hardware/startup/lib/arm/a.le\libstartup.a(as_add.o)
                              D:/Study/Raspberry/QNX/ide-4.7-workspace/Bsp_Rasp/src/hardware/startup/lib/arm/a.le\libstartup.a(init_mmu.o) (as_add)
D:/Study/Raspberry/QNX/ide-4.7-workspace/Bsp_Rasp/src/hardware/startup/lib/arm/a.le\libstartup.a(as_add64.o)
                              D:/Study/Raspberry/QNX/ide-4.7-workspace/Bsp_Rasp/src/hardware/startup/lib/arm/a.le\libstartup.a(as_add.o) (as_add64)
D:/Study/Raspberry/QNX/ide-4.7-workspace/Bsp_Rasp/src/hardware/startup/lib/arm/a.le\libstartup.a(as_add_containing.o)
                              D:/Study/Raspberry/QNX/ide-4.7-workspace/Bsp_Rasp/src/hardware/startup/lib/arm/a.le\libstartup.a(ram.o) (as_add_containing)
D:/Study/Raspberry/QNX/ide-4.7-workspace/Bsp_Rasp/src/hardware/startup/lib/arm/a.le\libstartup.a(as_default.o)
                              D:/Study/Raspberry/QNX/ide-4.7-workspace/Bsp_Rasp/src/hardware/startup/lib/arm/a.le\libstartup.a(init_mmu.o) (as_default)
D:/Study/Raspberry/QNX/ide-4.7-workspace/Bsp_Rasp/src/hardware/startup/lib/arm/a.le\libstartup.a(as_find.o)
                              D:/Study/Raspberry/QNX/ide-4.7-workspace/Bsp_Rasp/src/hardware/startup/lib/arm/a.le\libstartup.a(init_mmu.o) (as_find)
D:/Study/Raspberry/QNX/ide-4.7-workspace/Bsp_Rasp/src/hardware/startup/lib/arm/a.le\libstartup.a(as_find_containing.o)
                              D:/Study/Raspberry/QNX/ide-4.7-workspace/Bsp_Rasp/src/hardware/startup/lib/arm/a.le\libstartup.a(ram.o) (as_find_containing)
D:/Study/Raspberry/QNX/ide-4.7-workspace/Bsp_Rasp/src/hardware/startup/lib/arm/a.le\libstartup.a(as_off2info.o)
                              D:/Study/Raspberry/QNX/ide-4.7-workspace/Bsp_Rasp/src/hardware/startup/lib/arm/a.le\libstartup.a(ram.o) (as_off2info)
D:/Study/Raspberry/QNX/ide-4.7-workspace/Bsp_Rasp/src/hardware/startup/lib/arm/a.le\libstartup.a(board_cpu_startup.o)
                              D:/Study/Raspberry/QNX/ide-4.7-workspace/Bsp_Rasp/src/hardware/startup/lib/arm/a.le\libstartup.a(cpu_startup.o) (board_cpu_startup)
D:/Study/Raspberry/QNX/ide-4.7-workspace/Bsp_Rasp/src/hardware/startup/lib/arm/a.le\libstartup.a(cpu_startnext.o)
                              D:/Study/Raspberry/QNX/ide-4.7-workspace/Bsp_Rasp/src/hardware/startup/lib/arm/a.le\libstartup.a(startnext.o) (cpu_startnext)
D:/Study/Raspberry/QNX/ide-4.7-workspace/Bsp_Rasp/src/hardware/startup/lib/arm/a.le\libstartup.a(cpu_syspage_memory.o)
                              D:/Study/Raspberry/QNX/ide-4.7-workspace/Bsp_Rasp/src/hardware/startup/lib/arm/a.le\libstartup.a(syspage_memory.o) (cpu_write_syspage_memory)
D:/Study/Raspberry/QNX/ide-4.7-workspace/Bsp_Rasp/src/hardware/startup/lib/arm/a.le\libstartup.a(crash_done.o)
                              D:/Study/Raspberry/QNX/ide-4.7-workspace/Bsp_Rasp/src/hardware/startup/lib/arm/a.le\libstartup.a(kprintf.o) (crash_done)
D:/Study/Raspberry/QNX/ide-4.7-workspace/Bsp_Rasp/src/hardware/startup/lib/arm/a.le\libstartup.a(dummy_print_char.o)
                              D:/Study/Raspberry/QNX/ide-4.7-workspace/Bsp_Rasp/src/hardware/startup/lib/arm/a.le\libstartup.a(kprintf.o) (dummy_print_char)
D:/Study/Raspberry/QNX/ide-4.7-workspace/Bsp_Rasp/src/hardware/startup/lib/arm/a.le\libstartup.a(elf.o)
                              D:/Study/Raspberry/QNX/ide-4.7-workspace/Bsp_Rasp/src/hardware/startup/lib/arm/a.le\libstartup.a(init_system_private.o) (load_elf32)
D:/Study/Raspberry/QNX/ide-4.7-workspace/Bsp_Rasp/src/hardware/startup/lib/arm/a.le\libstartup.a(elf_map.o)
                              D:/Study/Raspberry/QNX/ide-4.7-workspace/Bsp_Rasp/src/hardware/startup/lib/arm/a.le\libstartup.a(elf.o) (elf_map)
D:/Study/Raspberry/QNX/ide-4.7-workspace/Bsp_Rasp/src/hardware/startup/lib/arm/a.le\libstartup.a(hwi_add_device.o)
                              D:/Study/Raspberry/QNX/ide-4.7-workspace/Bsp_Rasp/src/hardware/startup/lib/arm/a.le\libstartup.a(hwi_add_nanospin.o) (hwi_add_device)
D:/Study/Raspberry/QNX/ide-4.7-workspace/Bsp_Rasp/src/hardware/startup/lib/arm/a.le\libstartup.a(hwi_default.o)
                              D:/Study/Raspberry/QNX/ide-4.7-workspace/Bsp_Rasp/src/hardware/startup/lib/arm/a.le\libstartup.a(syspage_memory.o) (hwi_default)
D:/Study/Raspberry/QNX/ide-4.7-workspace/Bsp_Rasp/src/hardware/startup/lib/arm/a.le\libstartup.a(mdriver_max.o)
                              D:/Study/Raspberry/QNX/ide-4.7-workspace/Bsp_Rasp/src/hardware/startup/lib/arm/a.le\libstartup.a(memfuncs.o) (mdriver_max)
D:/Study/Raspberry/QNX/ide-4.7-workspace/Bsp_Rasp/src/hardware/startup/lib/arm/a.le\libstartup.a(memcpy.o)
                              D:/Study/Raspberry/QNX/ide-4.7-workspace/Bsp_Rasp/src/hardware/startup/lib/arm/a.le\libstartup.a(memmove.o) (memcpy)
D:/Study/Raspberry/QNX/ide-4.7-workspace/Bsp_Rasp/src/hardware/startup/lib/arm/a.le\libstartup.a(timer_ns2tick.o)
                              D:/Study/Raspberry/QNX/ide-4.7-workspace/Bsp_Rasp/src/hardware/startup/lib/arm/a.le\libstartup.a(arm_cpuspeed.o) (timer_ns2tick)
D:/Study/Raspberry/QNX/ide-4.7-workspace/Bsp_Rasp/src/hardware/startup/lib/arm/a.le\libstartup.a(timer_tick2ns.o)
                              D:/Study/Raspberry/QNX/ide-4.7-workspace/Bsp_Rasp/src/hardware/startup/lib/arm/a.le\libstartup.a(timer_ns2tick.o) (timer_tick2ns)
D:/Study/Raspberry/QNX/ide-4.7-workspace/Bsp_Rasp/src/hardware/startup/lib/arm/a.le\libstartup.a(vstart_v4.o)
                              D:/Study/Raspberry/QNX/ide-4.7-workspace/Bsp_Rasp/src/hardware/startup/lib/arm/a.le\libstartup.a(cpu_startnext.o) (vstart_v4)
D:/Study/Raspberry/QNX/ide-4.7-workspace/Bsp_Rasp/src/hardware/startup/lib/arm/a.le\libstartup.a(add_cache.o)
                              D:/Study/Raspberry/QNX/ide-4.7-workspace/Bsp_Rasp/src/hardware/startup/lib/arm/a.le\libstartup.a(arm_cache.o) (add_cache)
D:/Study/Raspberry/QNX/ide-4.7-workspace/Bsp_Rasp/src/hardware/startup/lib/arm/a.le\libstartup.a(armv_chip_1020.o)
                              D:/Study/Raspberry/QNX/ide-4.7-workspace/Bsp_Rasp/src/hardware/startup/lib/arm/a.le\libstartup.a(armv_list.o) (armv_chip_1020)
D:/Study/Raspberry/QNX/ide-4.7-workspace/Bsp_Rasp/src/hardware/startup/lib/arm/a.le\libstartup.a(armv_chip_1022.o)
                              D:/Study/Raspberry/QNX/ide-4.7-workspace/Bsp_Rasp/src/hardware/startup/lib/arm/a.le\libstartup.a(armv_list.o) (armv_chip_1022)
D:/Study/Raspberry/QNX/ide-4.7-workspace/Bsp_Rasp/src/hardware/startup/lib/arm/a.le\libstartup.a(armv_chip_1136.o)
                              D:/Study/Raspberry/QNX/ide-4.7-workspace/Bsp_Rasp/src/hardware/startup/lib/arm/a.le\libstartup.a(armv_list.o) (armv_chip_1136)
D:/Study/Raspberry/QNX/ide-4.7-workspace/Bsp_Rasp/src/hardware/startup/lib/arm/a.le\libstartup.a(armv_chip_1176.o)
                              D:/Study/Raspberry/QNX/ide-4.7-workspace/Bsp_Rasp/src/hardware/startup/lib/arm/a.le\libstartup.a(armv_list.o) (armv_chip_1176)
D:/Study/Raspberry/QNX/ide-4.7-workspace/Bsp_Rasp/src/hardware/startup/lib/arm/a.le\libstartup.a(armv_chip_1200.o)
                              D:/Study/Raspberry/QNX/ide-4.7-workspace/Bsp_Rasp/src/hardware/startup/lib/arm/a.le\libstartup.a(armv_list.o) (armv_chip_ixp1200)
D:/Study/Raspberry/QNX/ide-4.7-workspace/Bsp_Rasp/src/hardware/startup/lib/arm/a.le\libstartup.a(armv_chip_23xx.o)
                              D:/Study/Raspberry/QNX/ide-4.7-workspace/Bsp_Rasp/src/hardware/startup/lib/arm/a.le\libstartup.a(armv_list.o) (armv_chip_ixp23xx)
D:/Study/Raspberry/QNX/ide-4.7-workspace/Bsp_Rasp/src/hardware/startup/lib/arm/a.le\libstartup.a(armv_chip_2400.o)
                              D:/Study/Raspberry/QNX/ide-4.7-workspace/Bsp_Rasp/src/hardware/startup/lib/arm/a.le\libstartup.a(armv_list.o) (armv_chip_ixp2400)
D:/Study/Raspberry/QNX/ide-4.7-workspace/Bsp_Rasp/src/hardware/startup/lib/arm/a.le\libstartup.a(armv_chip_2800.o)
                              D:/Study/Raspberry/QNX/ide-4.7-workspace/Bsp_Rasp/src/hardware/startup/lib/arm/a.le\libstartup.a(armv_list.o) (armv_chip_ixp2800)
D:/Study/Raspberry/QNX/ide-4.7-workspace/Bsp_Rasp/src/hardware/startup/lib/arm/a.le\libstartup.a(armv_chip_425.o)
                              D:/Study/Raspberry/QNX/ide-4.7-workspace/Bsp_Rasp/src/hardware/startup/lib/arm/a.le\libstartup.a(armv_list.o) (armv_chip_ixp425)
D:/Study/Raspberry/QNX/ide-4.7-workspace/Bsp_Rasp/src/hardware/startup/lib/arm/a.le\libstartup.a(armv_chip_465.o)
                              D:/Study/Raspberry/QNX/ide-4.7-workspace/Bsp_Rasp/src/hardware/startup/lib/arm/a.le\libstartup.a(armv_list.o) (armv_chip_ixp465)
D:/Study/Raspberry/QNX/ide-4.7-workspace/Bsp_Rasp/src/hardware/startup/lib/arm/a.le\libstartup.a(armv_chip_720.o)
                              D:/Study/Raspberry/QNX/ide-4.7-workspace/Bsp_Rasp/src/hardware/startup/lib/arm/a.le\libstartup.a(armv_list.o) (armv_chip_720)
D:/Study/Raspberry/QNX/ide-4.7-workspace/Bsp_Rasp/src/hardware/startup/lib/arm/a.le\libstartup.a(armv_chip_80200.o)
                              D:/Study/Raspberry/QNX/ide-4.7-workspace/Bsp_Rasp/src/hardware/startup/lib/arm/a.le\libstartup.a(armv_list.o) (armv_chip_80200)
D:/Study/Raspberry/QNX/ide-4.7-workspace/Bsp_Rasp/src/hardware/startup/lib/arm/a.le\libstartup.a(armv_chip_920.o)
                              D:/Study/Raspberry/QNX/ide-4.7-workspace/Bsp_Rasp/src/hardware/startup/lib/arm/a.le\libstartup.a(armv_list.o) (armv_chip_920)
D:/Study/Raspberry/QNX/ide-4.7-workspace/Bsp_Rasp/src/hardware/startup/lib/arm/a.le\libstartup.a(armv_chip_922.o)
                              D:/Study/Raspberry/QNX/ide-4.7-workspace/Bsp_Rasp/src/hardware/startup/lib/arm/a.le\libstartup.a(armv_list.o) (armv_chip_922)
D:/Study/Raspberry/QNX/ide-4.7-workspace/Bsp_Rasp/src/hardware/startup/lib/arm/a.le\libstartup.a(armv_chip_925.o)
                              D:/Study/Raspberry/QNX/ide-4.7-workspace/Bsp_Rasp/src/hardware/startup/lib/arm/a.le\libstartup.a(armv_list.o) (armv_chip_925)
D:/Study/Raspberry/QNX/ide-4.7-workspace/Bsp_Rasp/src/hardware/startup/lib/arm/a.le\libstartup.a(armv_chip_926.o)
                              D:/Study/Raspberry/QNX/ide-4.7-workspace/Bsp_Rasp/src/hardware/startup/lib/arm/a.le\libstartup.a(armv_list.o) (armv_chip_926)
D:/Study/Raspberry/QNX/ide-4.7-workspace/Bsp_Rasp/src/hardware/startup/lib/arm/a.le\libstartup.a(armv_chip_a15.o)
                              D:/Study/Raspberry/QNX/ide-4.7-workspace/Bsp_Rasp/src/hardware/startup/lib/arm/a.le\libstartup.a(armv_list.o) (armv_chip_a15)
D:/Study/Raspberry/QNX/ide-4.7-workspace/Bsp_Rasp/src/hardware/startup/lib/arm/a.le\libstartup.a(armv_chip_a8.o)
                              D:/Study/Raspberry/QNX/ide-4.7-workspace/Bsp_Rasp/src/hardware/startup/lib/arm/a.le\libstartup.a(armv_list.o) (armv_chip_a8)
D:/Study/Raspberry/QNX/ide-4.7-workspace/Bsp_Rasp/src/hardware/startup/lib/arm/a.le\libstartup.a(armv_chip_a9.o)
                              D:/Study/Raspberry/QNX/ide-4.7-workspace/Bsp_Rasp/src/hardware/startup/lib/arm/a.le\libstartup.a(armv_list.o) (armv_chip_a9)
D:/Study/Raspberry/QNX/ide-4.7-workspace/Bsp_Rasp/src/hardware/startup/lib/arm/a.le\libstartup.a(armv_chip_mp11.o)
                              D:/Study/Raspberry/QNX/ide-4.7-workspace/Bsp_Rasp/src/hardware/startup/lib/arm/a.le\libstartup.a(armv_list.o) (armv_chip_mp11)
D:/Study/Raspberry/QNX/ide-4.7-workspace/Bsp_Rasp/src/hardware/startup/lib/arm/a.le\libstartup.a(armv_chip_pxa210b.o)
                              D:/Study/Raspberry/QNX/ide-4.7-workspace/Bsp_Rasp/src/hardware/startup/lib/arm/a.le\libstartup.a(armv_list.o) (armv_chip_pxa210b)
D:/Study/Raspberry/QNX/ide-4.7-workspace/Bsp_Rasp/src/hardware/startup/lib/arm/a.le\libstartup.a(armv_chip_pxa210c.o)
                              D:/Study/Raspberry/QNX/ide-4.7-workspace/Bsp_Rasp/src/hardware/startup/lib/arm/a.le\libstartup.a(armv_list.o) (armv_chip_pxa210c)
D:/Study/Raspberry/QNX/ide-4.7-workspace/Bsp_Rasp/src/hardware/startup/lib/arm/a.le\libstartup.a(armv_chip_pxa250a.o)
                              D:/Study/Raspberry/QNX/ide-4.7-workspace/Bsp_Rasp/src/hardware/startup/lib/arm/a.le\libstartup.a(armv_list.o) (armv_chip_pxa250a)
D:/Study/Raspberry/QNX/ide-4.7-workspace/Bsp_Rasp/src/hardware/startup/lib/arm/a.le\libstartup.a(armv_chip_pxa250b.o)
                              D:/Study/Raspberry/QNX/ide-4.7-workspace/Bsp_Rasp/src/hardware/startup/lib/arm/a.le\libstartup.a(armv_list.o) (armv_chip_pxa250b)
D:/Study/Raspberry/QNX/ide-4.7-workspace/Bsp_Rasp/src/hardware/startup/lib/arm/a.le\libstartup.a(armv_chip_pxa255.o)
                              D:/Study/Raspberry/QNX/ide-4.7-workspace/Bsp_Rasp/src/hardware/startup/lib/arm/a.le\libstartup.a(armv_list.o) (armv_chip_pxa255)
D:/Study/Raspberry/QNX/ide-4.7-workspace/Bsp_Rasp/src/hardware/startup/lib/arm/a.le\libstartup.a(armv_chip_pxa270.o)
                              D:/Study/Raspberry/QNX/ide-4.7-workspace/Bsp_Rasp/src/hardware/startup/lib/arm/a.le\libstartup.a(armv_list.o) (armv_chip_pxa270)
D:/Study/Raspberry/QNX/ide-4.7-workspace/Bsp_Rasp/src/hardware/startup/lib/arm/a.le\libstartup.a(armv_chip_sa1100.o)
                              D:/Study/Raspberry/QNX/ide-4.7-workspace/Bsp_Rasp/src/hardware/startup/lib/arm/a.le\libstartup.a(armv_list.o) (armv_chip_sa1100)
D:/Study/Raspberry/QNX/ide-4.7-workspace/Bsp_Rasp/src/hardware/startup/lib/arm/a.le\libstartup.a(armv_chip_sa1110.o)
                              D:/Study/Raspberry/QNX/ide-4.7-workspace/Bsp_Rasp/src/hardware/startup/lib/arm/a.le\libstartup.a(armv_list.o) (armv_chip_sa1110)
D:/Study/Raspberry/QNX/ide-4.7-workspace/Bsp_Rasp/src/hardware/startup/lib/arm/a.le\libstartup.a(armv_chip_sheeva.o)
                              D:/Study/Raspberry/QNX/ide-4.7-workspace/Bsp_Rasp/src/hardware/startup/lib/arm/a.le\libstartup.a(armv_list.o) (armv_chip_sheeva)
D:/Study/Raspberry/QNX/ide-4.7-workspace/Bsp_Rasp/src/hardware/startup/lib/arm/a.le\libstartup.a(armv_detect_a9.o)
                              D:/Study/Raspberry/QNX/ide-4.7-workspace/Bsp_Rasp/src/hardware/startup/lib/arm/a.le\libstartup.a(armv_chip_a9.o) (armv_detect_a9)
D:/Study/Raspberry/QNX/ide-4.7-workspace/Bsp_Rasp/src/hardware/startup/lib/arm/a.le\libstartup.a(armv_detect_sheeva.o)
                              D:/Study/Raspberry/QNX/ide-4.7-workspace/Bsp_Rasp/src/hardware/startup/lib/arm/a.le\libstartup.a(armv_chip_sheeva.o) (armv_detect_sheeva)
D:/Study/Raspberry/QNX/ide-4.7-workspace/Bsp_Rasp/src/hardware/startup/lib/arm/a.le\libstartup.a(armv_pte_ixp2xxx.o)
                              D:/Study/Raspberry/QNX/ide-4.7-workspace/Bsp_Rasp/src/hardware/startup/lib/arm/a.le\libstartup.a(armv_chip_2400.o) (armv_pte_ixp2xxx)
D:/Study/Raspberry/QNX/ide-4.7-workspace/Bsp_Rasp/src/hardware/startup/lib/arm/a.le\libstartup.a(armv_pte_v4wb.o)
                              D:/Study/Raspberry/QNX/ide-4.7-workspace/Bsp_Rasp/src/hardware/startup/lib/arm/a.le\libstartup.a(armv_chip_1020.o) (armv_pte_v4wb)
D:/Study/Raspberry/QNX/ide-4.7-workspace/Bsp_Rasp/src/hardware/startup/lib/arm/a.le\libstartup.a(armv_pte_v4wt.o)
                              D:/Study/Raspberry/QNX/ide-4.7-workspace/Bsp_Rasp/src/hardware/startup/lib/arm/a.le\libstartup.a(armv_chip_1020.o) (armv_pte_v4wt)
D:/Study/Raspberry/QNX/ide-4.7-workspace/Bsp_Rasp/src/hardware/startup/lib/arm/a.le\libstartup.a(armv_pte_v5wa.o)
                              D:/Study/Raspberry/QNX/ide-4.7-workspace/Bsp_Rasp/src/hardware/startup/lib/arm/a.le\libstartup.a(armv_chip_425.o) (armv_pte_v5wa)
D:/Study/Raspberry/QNX/ide-4.7-workspace/Bsp_Rasp/src/hardware/startup/lib/arm/a.le\libstartup.a(armv_pte_v5wb.o)
                              D:/Study/Raspberry/QNX/ide-4.7-workspace/Bsp_Rasp/src/hardware/startup/lib/arm/a.le\libstartup.a(armv_chip_425.o) (armv_pte_v5wb)
D:/Study/Raspberry/QNX/ide-4.7-workspace/Bsp_Rasp/src/hardware/startup/lib/arm/a.le\libstartup.a(armv_pte_v5wt.o)
                              D:/Study/Raspberry/QNX/ide-4.7-workspace/Bsp_Rasp/src/hardware/startup/lib/arm/a.le\libstartup.a(armv_chip_425.o) (armv_pte_v5wt)
D:/Study/Raspberry/QNX/ide-4.7-workspace/Bsp_Rasp/src/hardware/startup/lib/arm/a.le\libstartup.a(armv_pte_v6mp.o)
                              D:/Study/Raspberry/QNX/ide-4.7-workspace/Bsp_Rasp/src/hardware/startup/lib/arm/a.le\libstartup.a(armv_chip_mp11.o) (armv_pte_v6mp)
D:/Study/Raspberry/QNX/ide-4.7-workspace/Bsp_Rasp/src/hardware/startup/lib/arm/a.le\libstartup.a(armv_pte_v6wb.o)
                              D:/Study/Raspberry/QNX/ide-4.7-workspace/Bsp_Rasp/src/hardware/startup/lib/arm/a.le\libstartup.a(armv_chip_1136.o) (armv_pte_v6wb)
D:/Study/Raspberry/QNX/ide-4.7-workspace/Bsp_Rasp/src/hardware/startup/lib/arm/a.le\libstartup.a(armv_pte_v6wt.o)
                              D:/Study/Raspberry/QNX/ide-4.7-workspace/Bsp_Rasp/src/hardware/startup/lib/arm/a.le\libstartup.a(armv_chip_1136.o) (armv_pte_v6wt)
D:/Study/Raspberry/QNX/ide-4.7-workspace/Bsp_Rasp/src/hardware/startup/lib/arm/a.le\libstartup.a(armv_pte_v7mp.o)
                              D:/Study/Raspberry/QNX/ide-4.7-workspace/Bsp_Rasp/src/hardware/startup/lib/arm/a.le\libstartup.a(armv_chip_a15.o) (armv_pte_v7mp)
D:/Study/Raspberry/QNX/ide-4.7-workspace/Bsp_Rasp/src/hardware/startup/lib/arm/a.le\libstartup.a(armv_pte_v7wa.o)
                              D:/Study/Raspberry/QNX/ide-4.7-workspace/Bsp_Rasp/src/hardware/startup/lib/arm/a.le\libstartup.a(armv_chip_a8.o) (armv_pte_v7wa)
D:/Study/Raspberry/QNX/ide-4.7-workspace/Bsp_Rasp/src/hardware/startup/lib/arm/a.le\libstartup.a(armv_pte_v7wb.o)
                              D:/Study/Raspberry/QNX/ide-4.7-workspace/Bsp_Rasp/src/hardware/startup/lib/arm/a.le\libstartup.a(armv_chip_a8.o) (armv_pte_v7wb)
D:/Study/Raspberry/QNX/ide-4.7-workspace/Bsp_Rasp/src/hardware/startup/lib/arm/a.le\libstartup.a(armv_pte_v7wt.o)
                              D:/Study/Raspberry/QNX/ide-4.7-workspace/Bsp_Rasp/src/hardware/startup/lib/arm/a.le\libstartup.a(armv_chip_a8.o) (armv_pte_v7wt)
D:/Study/Raspberry/QNX/ide-4.7-workspace/Bsp_Rasp/src/hardware/startup/lib/arm/a.le\libstartup.a(armv_pte_xsc3.o)
                              D:/Study/Raspberry/QNX/ide-4.7-workspace/Bsp_Rasp/src/hardware/startup/lib/arm/a.le\libstartup.a(armv_chip_23xx.o) (armv_pte_xsc3)
D:/Study/Raspberry/QNX/ide-4.7-workspace/Bsp_Rasp/src/hardware/startup/lib/arm/a.le\libstartup.a(armv_setup_1136.o)
                              D:/Study/Raspberry/QNX/ide-4.7-workspace/Bsp_Rasp/src/hardware/startup/lib/arm/a.le\libstartup.a(armv_chip_1136.o) (armv_setup_1136)
D:/Study/Raspberry/QNX/ide-4.7-workspace/Bsp_Rasp/src/hardware/startup/lib/arm/a.le\libstartup.a(armv_setup_a15.o)
                              D:/Study/Raspberry/QNX/ide-4.7-workspace/Bsp_Rasp/src/hardware/startup/lib/arm/a.le\libstartup.a(armv_chip_a15.o) (armv_setup_a15)
D:/Study/Raspberry/QNX/ide-4.7-workspace/Bsp_Rasp/src/hardware/startup/lib/arm/a.le\libstartup.a(armv_setup_a8.o)
                              D:/Study/Raspberry/QNX/ide-4.7-workspace/Bsp_Rasp/src/hardware/startup/lib/arm/a.le\libstartup.a(armv_chip_a8.o) (armv_setup_a8)
D:/Study/Raspberry/QNX/ide-4.7-workspace/Bsp_Rasp/src/hardware/startup/lib/arm/a.le\libstartup.a(armv_setup_mp11.o)
                              D:/Study/Raspberry/QNX/ide-4.7-workspace/Bsp_Rasp/src/hardware/startup/lib/arm/a.le\libstartup.a(armv_chip_mp11.o) (armv_setup_mp11)
D:/Study/Raspberry/QNX/ide-4.7-workspace/Bsp_Rasp/src/hardware/startup/lib/arm/a.le\libstartup.a(armv_setup_v6.o)
                              D:/Study/Raspberry/QNX/ide-4.7-workspace/Bsp_Rasp/src/hardware/startup/lib/arm/a.le\libstartup.a(armv_setup_1136.o) (armv_setup_v6)
D:/Study/Raspberry/QNX/ide-4.7-workspace/Bsp_Rasp/src/hardware/startup/lib/arm/a.le\libstartup.a(armv_setup_v7.o)
                              D:/Study/Raspberry/QNX/ide-4.7-workspace/Bsp_Rasp/src/hardware/startup/lib/arm/a.le\libstartup.a(armv_setup_a15.o) (armv_setup_v7)
D:/Study/Raspberry/QNX/ide-4.7-workspace/Bsp_Rasp/src/hardware/startup/lib/arm/a.le\libstartup.a(armv_setup_xscale.o)
                              D:/Study/Raspberry/QNX/ide-4.7-workspace/Bsp_Rasp/src/hardware/startup/lib/arm/a.le\libstartup.a(armv_chip_23xx.o) (armv_setup_xscale)
D:/Study/Raspberry/QNX/ide-4.7-workspace/Bsp_Rasp/src/hardware/startup/lib/arm/a.le\libstartup.a(board_cpu_startnext.o)
                              D:/Study/Raspberry/QNX/ide-4.7-workspace/Bsp_Rasp/src/hardware/startup/lib/arm/a.le\libstartup.a(cpu_startnext.o) (board_cpu_startnext)
D:/Study/Raspberry/QNX/ide-4.7-workspace/Bsp_Rasp/src/hardware/startup/lib/arm/a.le\libstartup.a(callout_page_1020.o)
                              D:/Study/Raspberry/QNX/ide-4.7-workspace/Bsp_Rasp/src/hardware/startup/lib/arm/a.le\libstartup.a(armv_chip_1020.o) (page_flush_1020)
D:/Study/Raspberry/QNX/ide-4.7-workspace/Bsp_Rasp/src/hardware/startup/lib/arm/a.le\libstartup.a(callout_page_1136.o)
                              D:/Study/Raspberry/QNX/ide-4.7-workspace/Bsp_Rasp/src/hardware/startup/lib/arm/a.le\libstartup.a(armv_chip_1136.o) (page_flush_1136)
D:/Study/Raspberry/QNX/ide-4.7-workspace/Bsp_Rasp/src/hardware/startup/lib/arm/a.le\libstartup.a(callout_page_720.o)
                              D:/Study/Raspberry/QNX/ide-4.7-workspace/Bsp_Rasp/src/hardware/startup/lib/arm/a.le\libstartup.a(armv_chip_720.o) (page_flush_720)
D:/Study/Raspberry/QNX/ide-4.7-workspace/Bsp_Rasp/src/hardware/startup/lib/arm/a.le\libstartup.a(callout_page_920.o)
                              D:/Study/Raspberry/QNX/ide-4.7-workspace/Bsp_Rasp/src/hardware/startup/lib/arm/a.le\libstartup.a(armv_chip_920.o) (page_flush_920)
D:/Study/Raspberry/QNX/ide-4.7-workspace/Bsp_Rasp/src/hardware/startup/lib/arm/a.le\libstartup.a(callout_page_925.o)
                              D:/Study/Raspberry/QNX/ide-4.7-workspace/Bsp_Rasp/src/hardware/startup/lib/arm/a.le\libstartup.a(armv_chip_925.o) (page_flush_925)
D:/Study/Raspberry/QNX/ide-4.7-workspace/Bsp_Rasp/src/hardware/startup/lib/arm/a.le\libstartup.a(callout_page_a15.o)
                              D:/Study/Raspberry/QNX/ide-4.7-workspace/Bsp_Rasp/src/hardware/startup/lib/arm/a.le\libstartup.a(armv_chip_a15.o) (page_flush_a15)
D:/Study/Raspberry/QNX/ide-4.7-workspace/Bsp_Rasp/src/hardware/startup/lib/arm/a.le\libstartup.a(callout_page_a8.o)
                              D:/Study/Raspberry/QNX/ide-4.7-workspace/Bsp_Rasp/src/hardware/startup/lib/arm/a.le\libstartup.a(armv_chip_a8.o) (page_flush_a8)
D:/Study/Raspberry/QNX/ide-4.7-workspace/Bsp_Rasp/src/hardware/startup/lib/arm/a.le\libstartup.a(callout_page_mp11.o)
                              D:/Study/Raspberry/QNX/ide-4.7-workspace/Bsp_Rasp/src/hardware/startup/lib/arm/a.le\libstartup.a(armv_chip_mp11.o) (page_flush_mp11)
D:/Study/Raspberry/QNX/ide-4.7-workspace/Bsp_Rasp/src/hardware/startup/lib/arm/a.le\libstartup.a(callout_page_sa.o)
                              D:/Study/Raspberry/QNX/ide-4.7-workspace/Bsp_Rasp/src/hardware/startup/lib/arm/a.le\libstartup.a(armv_chip_1200.o) (page_flush_sa)
D:/Study/Raspberry/QNX/ide-4.7-workspace/Bsp_Rasp/src/hardware/startup/lib/arm/a.le\libstartup.a(callout_page_xsc3.o)
                              D:/Study/Raspberry/QNX/ide-4.7-workspace/Bsp_Rasp/src/hardware/startup/lib/arm/a.le\libstartup.a(armv_chip_23xx.o) (page_flush_xsc3)
D:/Study/Raspberry/QNX/ide-4.7-workspace/Bsp_Rasp/src/hardware/startup/lib/arm/a.le\libstartup.a(callout_page_xscale.o)
                              D:/Study/Raspberry/QNX/ide-4.7-workspace/Bsp_Rasp/src/hardware/startup/lib/arm/a.le\libstartup.a(armv_chip_2400.o) (page_flush_xscale)
D:/Study/Raspberry/QNX/ide-4.7-workspace/Bsp_Rasp/src/hardware/startup/lib/arm/a.le\libstartup.a(callout_power_926.o)
                              D:/Study/Raspberry/QNX/ide-4.7-workspace/Bsp_Rasp/src/hardware/startup/lib/arm/a.le\libstartup.a(armv_chip_926.o) (power_926)
D:/Study/Raspberry/QNX/ide-4.7-workspace/Bsp_Rasp/src/hardware/startup/lib/arm/a.le\libstartup.a(callout_power_cp15_wfi.o)
                              D:/Study/Raspberry/QNX/ide-4.7-workspace/Bsp_Rasp/src/hardware/startup/lib/arm/a.le\libstartup.a(armv_chip_1020.o) (power_cp15_wfi)
D:/Study/Raspberry/QNX/ide-4.7-workspace/Bsp_Rasp/src/hardware/startup/lib/arm/a.le\libstartup.a(callout_power_sa1100.o)
                              D:/Study/Raspberry/QNX/ide-4.7-workspace/Bsp_Rasp/src/hardware/startup/lib/arm/a.le\libstartup.a(armv_chip_sa1100.o) (power_sa1100)
D:/Study/Raspberry/QNX/ide-4.7-workspace/Bsp_Rasp/src/hardware/startup/lib/arm/a.le\libstartup.a(callout_power_v7_wfi.o)
                              D:/Study/Raspberry/QNX/ide-4.7-workspace/Bsp_Rasp/src/hardware/startup/lib/arm/a.le\libstartup.a(armv_chip_a15.o) (power_v7_wfi)
D:/Study/Raspberry/QNX/ide-4.7-workspace/Bsp_Rasp/src/hardware/startup/lib/arm/a.le\libstartup.a(callout_power_xscale.o)
                              D:/Study/Raspberry/QNX/ide-4.7-workspace/Bsp_Rasp/src/hardware/startup/lib/arm/a.le\libstartup.a(armv_chip_2400.o) (power_xscale)
D:/Study/Raspberry/QNX/ide-4.7-workspace/Bsp_Rasp/src/hardware/startup/lib/arm/a.le\libstartup.a(vstart_v6.o)
                              D:/Study/Raspberry/QNX/ide-4.7-workspace/Bsp_Rasp/src/hardware/startup/lib/arm/a.le\libstartup.a(armv_setup_v6.o) (vstart_v6)
D:/Study/Raspberry/QNX/ide-4.7-workspace/Bsp_Rasp/src/hardware/startup/lib/arm/a.le\libstartup.a(vstart_v7.o)
                              D:/Study/Raspberry/QNX/ide-4.7-workspace/Bsp_Rasp/src/hardware/startup/lib/arm/a.le\libstartup.a(armv_setup_v7.o) (vstart_v7)
D:/Study/Raspberry/QNX/ide-4.7-workspace/Bsp_Rasp/src/hardware/startup/lib/arm/a.le\libstartup.a(arm_gic.o)
                              D:/Study/Raspberry/QNX/ide-4.7-workspace/Bsp_Rasp/src/hardware/startup/lib/arm/a.le\libstartup.a(armv_setup_a15.o) (arm_gic_cpu_init)
D:/Study/Raspberry/QNX/ide-4.7-workspace/Bsp_Rasp/src/hardware/startup/lib/arm/a.le\libstartup.a(armv_cache_1020.o)
                              D:/Study/Raspberry/QNX/ide-4.7-workspace/Bsp_Rasp/src/hardware/startup/lib/arm/a.le\libstartup.a(armv_chip_1020.o) (armv_cache_1020)
D:/Study/Raspberry/QNX/ide-4.7-workspace/Bsp_Rasp/src/hardware/startup/lib/arm/a.le\libstartup.a(armv_cache_1136.o)
                              D:/Study/Raspberry/QNX/ide-4.7-workspace/Bsp_Rasp/src/hardware/startup/lib/arm/a.le\libstartup.a(armv_chip_1136.o) (armv_cache_1136)
D:/Study/Raspberry/QNX/ide-4.7-workspace/Bsp_Rasp/src/hardware/startup/lib/arm/a.le\libstartup.a(armv_cache_720.o)
                              D:/Study/Raspberry/QNX/ide-4.7-workspace/Bsp_Rasp/src/hardware/startup/lib/arm/a.le\libstartup.a(armv_chip_720.o) (armv_cache_720)
D:/Study/Raspberry/QNX/ide-4.7-workspace/Bsp_Rasp/src/hardware/startup/lib/arm/a.le\libstartup.a(armv_cache_920.o)
                              D:/Study/Raspberry/QNX/ide-4.7-workspace/Bsp_Rasp/src/hardware/startup/lib/arm/a.le\libstartup.a(armv_chip_920.o) (armv_cache_920)
D:/Study/Raspberry/QNX/ide-4.7-workspace/Bsp_Rasp/src/hardware/startup/lib/arm/a.le\libstartup.a(armv_cache_925.o)
                              D:/Study/Raspberry/QNX/ide-4.7-workspace/Bsp_Rasp/src/hardware/startup/lib/arm/a.le\libstartup.a(armv_chip_925.o) (armv_cache_925)
D:/Study/Raspberry/QNX/ide-4.7-workspace/Bsp_Rasp/src/hardware/startup/lib/arm/a.le\libstartup.a(armv_cache_926.o)
                              D:/Study/Raspberry/QNX/ide-4.7-workspace/Bsp_Rasp/src/hardware/startup/lib/arm/a.le\libstartup.a(armv_chip_926.o) (armv_cache_926)
D:/Study/Raspberry/QNX/ide-4.7-workspace/Bsp_Rasp/src/hardware/startup/lib/arm/a.le\libstartup.a(armv_cache_a15.o)
                              D:/Study/Raspberry/QNX/ide-4.7-workspace/Bsp_Rasp/src/hardware/startup/lib/arm/a.le\libstartup.a(armv_chip_a15.o) (armv_cache_a15)
D:/Study/Raspberry/QNX/ide-4.7-workspace/Bsp_Rasp/src/hardware/startup/lib/arm/a.le\libstartup.a(armv_cache_a8.o)
                              D:/Study/Raspberry/QNX/ide-4.7-workspace/Bsp_Rasp/src/hardware/startup/lib/arm/a.le\libstartup.a(armv_chip_a8.o) (armv_cache_a8)
D:/Study/Raspberry/QNX/ide-4.7-workspace/Bsp_Rasp/src/hardware/startup/lib/arm/a.le\libstartup.a(armv_cache_mp11.o)
                              D:/Study/Raspberry/QNX/ide-4.7-workspace/Bsp_Rasp/src/hardware/startup/lib/arm/a.le\libstartup.a(armv_chip_mp11.o) (armv_cache_mp11)
D:/Study/Raspberry/QNX/ide-4.7-workspace/Bsp_Rasp/src/hardware/startup/lib/arm/a.le\libstartup.a(armv_cache_sa1100.o)
                              D:/Study/Raspberry/QNX/ide-4.7-workspace/Bsp_Rasp/src/hardware/startup/lib/arm/a.le\libstartup.a(armv_chip_1200.o) (armv_cache_sa1100)
D:/Study/Raspberry/QNX/ide-4.7-workspace/Bsp_Rasp/src/hardware/startup/lib/arm/a.le\libstartup.a(armv_cache_xsc3.o)
                              D:/Study/Raspberry/QNX/ide-4.7-workspace/Bsp_Rasp/src/hardware/startup/lib/arm/a.le\libstartup.a(armv_chip_23xx.o) (armv_cache_xsc3)
D:/Study/Raspberry/QNX/ide-4.7-workspace/Bsp_Rasp/src/hardware/startup/lib/arm/a.le\libstartup.a(armv_cache_xscale.o)
                              D:/Study/Raspberry/QNX/ide-4.7-workspace/Bsp_Rasp/src/hardware/startup/lib/arm/a.le\libstartup.a(armv_chip_2400.o) (armv_cache_xscale)
D:/Study/Raspberry/QNX/ide-4.7-workspace/Bsp_Rasp/src/hardware/startup/lib/arm/a.le\libstartup.a(armv_chip_a9mp.o)
                              D:/Study/Raspberry/QNX/ide-4.7-workspace/Bsp_Rasp/src/hardware/startup/lib/arm/a.le\libstartup.a(armv_detect_a9.o) (armv_chip_a9mp)
D:/Study/Raspberry/QNX/ide-4.7-workspace/Bsp_Rasp/src/hardware/startup/lib/arm/a.le\libstartup.a(armv_chip_a9up.o)
                              D:/Study/Raspberry/QNX/ide-4.7-workspace/Bsp_Rasp/src/hardware/startup/lib/arm/a.le\libstartup.a(armv_detect_a9.o) (armv_chip_a9up)
D:/Study/Raspberry/QNX/ide-4.7-workspace/Bsp_Rasp/src/hardware/startup/lib/arm/a.le\libstartup.a(armv_chip_sheeva_v6.o)
                              D:/Study/Raspberry/QNX/ide-4.7-workspace/Bsp_Rasp/src/hardware/startup/lib/arm/a.le\libstartup.a(armv_detect_sheeva.o) (armv_chip_sheeva_v6)
D:/Study/Raspberry/QNX/ide-4.7-workspace/Bsp_Rasp/src/hardware/startup/lib/arm/a.le\libstartup.a(armv_chip_sheeva_v7.o)
                              D:/Study/Raspberry/QNX/ide-4.7-workspace/Bsp_Rasp/src/hardware/startup/lib/arm/a.le\libstartup.a(armv_detect_sheeva.o) (armv_chip_sheeva_v7)
D:/Study/Raspberry/QNX/ide-4.7-workspace/Bsp_Rasp/src/hardware/startup/lib/arm/a.le\libstartup.a(armv_pte_v6wa.o)
                              D:/Study/Raspberry/QNX/ide-4.7-workspace/Bsp_Rasp/src/hardware/startup/lib/arm/a.le\libstartup.a(armv_chip_sheeva_v6.o) (armv_pte_v6wa)
D:/Study/Raspberry/QNX/ide-4.7-workspace/Bsp_Rasp/src/hardware/startup/lib/arm/a.le\libstartup.a(armv_setup_a9mp.o)
                              D:/Study/Raspberry/QNX/ide-4.7-workspace/Bsp_Rasp/src/hardware/startup/lib/arm/a.le\libstartup.a(armv_chip_a9mp.o) (armv_setup_a9mp)
D:/Study/Raspberry/QNX/ide-4.7-workspace/Bsp_Rasp/src/hardware/startup/lib/arm/a.le\libstartup.a(armv_setup_a9up.o)
                              D:/Study/Raspberry/QNX/ide-4.7-workspace/Bsp_Rasp/src/hardware/startup/lib/arm/a.le\libstartup.a(armv_chip_a9up.o) (armv_setup_a9up)
D:/Study/Raspberry/QNX/ide-4.7-workspace/Bsp_Rasp/src/hardware/startup/lib/arm/a.le\libstartup.a(armv_setup_sheeva_v6.o)
                              D:/Study/Raspberry/QNX/ide-4.7-workspace/Bsp_Rasp/src/hardware/startup/lib/arm/a.le\libstartup.a(armv_chip_sheeva_v6.o) (armv_setup_sheeva_v6)
D:/Study/Raspberry/QNX/ide-4.7-workspace/Bsp_Rasp/src/hardware/startup/lib/arm/a.le\libstartup.a(armv_setup_sheeva_v7.o)
                              D:/Study/Raspberry/QNX/ide-4.7-workspace/Bsp_Rasp/src/hardware/startup/lib/arm/a.le\libstartup.a(armv_chip_sheeva_v7.o) (armv_setup_sheeva_v7)
D:/Study/Raspberry/QNX/ide-4.7-workspace/Bsp_Rasp/src/hardware/startup/lib/arm/a.le\libstartup.a(callout_cache_1020.o)
                              D:/Study/Raspberry/QNX/ide-4.7-workspace/Bsp_Rasp/src/hardware/startup/lib/arm/a.le\libstartup.a(armv_cache_1020.o) (cache_1020_i)
D:/Study/Raspberry/QNX/ide-4.7-workspace/Bsp_Rasp/src/hardware/startup/lib/arm/a.le\libstartup.a(callout_cache_1136.o)
                              D:/Study/Raspberry/QNX/ide-4.7-workspace/Bsp_Rasp/src/hardware/startup/lib/arm/a.le\libstartup.a(armv_cache_1136.o) (cache_1136_i)
D:/Study/Raspberry/QNX/ide-4.7-workspace/Bsp_Rasp/src/hardware/startup/lib/arm/a.le\libstartup.a(callout_cache_720.o)
                              D:/Study/Raspberry/QNX/ide-4.7-workspace/Bsp_Rasp/src/hardware/startup/lib/arm/a.le\libstartup.a(armv_cache_720.o) (cache_720)
D:/Study/Raspberry/QNX/ide-4.7-workspace/Bsp_Rasp/src/hardware/startup/lib/arm/a.le\libstartup.a(callout_cache_920.o)
                              D:/Study/Raspberry/QNX/ide-4.7-workspace/Bsp_Rasp/src/hardware/startup/lib/arm/a.le\libstartup.a(armv_cache_920.o) (cache_920_i)
D:/Study/Raspberry/QNX/ide-4.7-workspace/Bsp_Rasp/src/hardware/startup/lib/arm/a.le\libstartup.a(callout_cache_925.o)
                              D:/Study/Raspberry/QNX/ide-4.7-workspace/Bsp_Rasp/src/hardware/startup/lib/arm/a.le\libstartup.a(armv_cache_925.o) (cache_925_i)
D:/Study/Raspberry/QNX/ide-4.7-workspace/Bsp_Rasp/src/hardware/startup/lib/arm/a.le\libstartup.a(callout_cache_926.o)
                              D:/Study/Raspberry/QNX/ide-4.7-workspace/Bsp_Rasp/src/hardware/startup/lib/arm/a.le\libstartup.a(armv_cache_926.o) (cache_926_i)
D:/Study/Raspberry/QNX/ide-4.7-workspace/Bsp_Rasp/src/hardware/startup/lib/arm/a.le\libstartup.a(callout_cache_a15.o)
                              D:/Study/Raspberry/QNX/ide-4.7-workspace/Bsp_Rasp/src/hardware/startup/lib/arm/a.le\libstartup.a(armv_cache_a15.o) (cache_a15_i)
D:/Study/Raspberry/QNX/ide-4.7-workspace/Bsp_Rasp/src/hardware/startup/lib/arm/a.le\libstartup.a(callout_cache_a8.o)
                              D:/Study/Raspberry/QNX/ide-4.7-workspace/Bsp_Rasp/src/hardware/startup/lib/arm/a.le\libstartup.a(armv_cache_a8.o) (cache_a8_i)
D:/Study/Raspberry/QNX/ide-4.7-workspace/Bsp_Rasp/src/hardware/startup/lib/arm/a.le\libstartup.a(callout_cache_mp11.o)
                              D:/Study/Raspberry/QNX/ide-4.7-workspace/Bsp_Rasp/src/hardware/startup/lib/arm/a.le\libstartup.a(armv_cache_mp11.o) (cache_mp11_i)
D:/Study/Raspberry/QNX/ide-4.7-workspace/Bsp_Rasp/src/hardware/startup/lib/arm/a.le\libstartup.a(callout_cache_sa.o)
                              D:/Study/Raspberry/QNX/ide-4.7-workspace/Bsp_Rasp/src/hardware/startup/lib/arm/a.le\libstartup.a(armv_cache_sa1100.o) (cache_sa_i)
D:/Study/Raspberry/QNX/ide-4.7-workspace/Bsp_Rasp/src/hardware/startup/lib/arm/a.le\libstartup.a(callout_cache_xsc3.o)
                              D:/Study/Raspberry/QNX/ide-4.7-workspace/Bsp_Rasp/src/hardware/startup/lib/arm/a.le\libstartup.a(armv_cache_xsc3.o) (cache_xsc3_i)
D:/Study/Raspberry/QNX/ide-4.7-workspace/Bsp_Rasp/src/hardware/startup/lib/arm/a.le\libstartup.a(callout_cache_xscale.o)
                              D:/Study/Raspberry/QNX/ide-4.7-workspace/Bsp_Rasp/src/hardware/startup/lib/arm/a.le\libstartup.a(armv_cache_xscale.o) (cache_xscale_i)
D:/Study/Raspberry/QNX/ide-4.7-workspace/Bsp_Rasp/src/hardware/startup/lib/arm/a.le\libstartup.a(callout_page_a9mp.o)
                              D:/Study/Raspberry/QNX/ide-4.7-workspace/Bsp_Rasp/src/hardware/startup/lib/arm/a.le\libstartup.a(armv_chip_a9mp.o) (page_flush_a9mp)
D:/Study/Raspberry/QNX/ide-4.7-workspace/Bsp_Rasp/src/hardware/startup/lib/arm/a.le\libstartup.a(callout_page_a9up.o)
                              D:/Study/Raspberry/QNX/ide-4.7-workspace/Bsp_Rasp/src/hardware/startup/lib/arm/a.le\libstartup.a(armv_chip_a9up.o) (page_flush_a9up)
D:/Study/Raspberry/QNX/ide-4.7-workspace/Bsp_Rasp/src/hardware/startup/lib/arm/a.le\libstartup.a(callout_page_sheeva_v6.o)
                              D:/Study/Raspberry/QNX/ide-4.7-workspace/Bsp_Rasp/src/hardware/startup/lib/arm/a.le\libstartup.a(armv_chip_sheeva_v6.o) (page_flush_sheeva_v6)
D:/Study/Raspberry/QNX/ide-4.7-workspace/Bsp_Rasp/src/hardware/startup/lib/arm/a.le\libstartup.a(callout_page_sheeva_v7.o)
                              D:/Study/Raspberry/QNX/ide-4.7-workspace/Bsp_Rasp/src/hardware/startup/lib/arm/a.le\libstartup.a(armv_chip_sheeva_v7.o) (page_flush_sheeva_v7)
D:/Study/Raspberry/QNX/ide-4.7-workspace/Bsp_Rasp/src/hardware/startup/lib/arm/a.le\libstartup.a(callout_power_sheeva_v6.o)
                              D:/Study/Raspberry/QNX/ide-4.7-workspace/Bsp_Rasp/src/hardware/startup/lib/arm/a.le\libstartup.a(armv_chip_sheeva_v6.o) (power_sheeva_v6)
D:/Study/Raspberry/QNX/ide-4.7-workspace/Bsp_Rasp/src/hardware/startup/lib/arm/a.le\libstartup.a(callout_power_sheeva_v7.o)
                              D:/Study/Raspberry/QNX/ide-4.7-workspace/Bsp_Rasp/src/hardware/startup/lib/arm/a.le\libstartup.a(armv_chip_sheeva_v7.o) (power_sheeva_v7)
D:/Study/Raspberry/QNX/ide-4.7-workspace/Bsp_Rasp/src/hardware/startup/lib/arm/a.le\libstartup.a(armv_cache_a9mp.o)
                              D:/Study/Raspberry/QNX/ide-4.7-workspace/Bsp_Rasp/src/hardware/startup/lib/arm/a.le\libstartup.a(armv_chip_a9mp.o) (armv_cache_a9mp)
D:/Study/Raspberry/QNX/ide-4.7-workspace/Bsp_Rasp/src/hardware/startup/lib/arm/a.le\libstartup.a(armv_cache_a9up.o)
                              D:/Study/Raspberry/QNX/ide-4.7-workspace/Bsp_Rasp/src/hardware/startup/lib/arm/a.le\libstartup.a(armv_chip_a9up.o) (armv_cache_a9up)
D:/Study/Raspberry/QNX/ide-4.7-workspace/Bsp_Rasp/src/hardware/startup/lib/arm/a.le\libstartup.a(armv_cache_sheeva_v6.o)
                              D:/Study/Raspberry/QNX/ide-4.7-workspace/Bsp_Rasp/src/hardware/startup/lib/arm/a.le\libstartup.a(armv_chip_sheeva_v6.o) (armv_cache_sheeva_v6)
D:/Study/Raspberry/QNX/ide-4.7-workspace/Bsp_Rasp/src/hardware/startup/lib/arm/a.le\libstartup.a(armv_cache_sheeva_v7.o)
                              D:/Study/Raspberry/QNX/ide-4.7-workspace/Bsp_Rasp/src/hardware/startup/lib/arm/a.le\libstartup.a(armv_chip_sheeva_v7.o) (armv_cache_sheeva_v7)
D:/Study/Raspberry/QNX/ide-4.7-workspace/Bsp_Rasp/src/hardware/startup/lib/arm/a.le\libstartup.a(callout_cache_a9mp.o)
                              D:/Study/Raspberry/QNX/ide-4.7-workspace/Bsp_Rasp/src/hardware/startup/lib/arm/a.le\libstartup.a(armv_cache_a9mp.o) (cache_a9mp_i)
D:/Study/Raspberry/QNX/ide-4.7-workspace/Bsp_Rasp/src/hardware/startup/lib/arm/a.le\libstartup.a(callout_cache_a9up.o)
                              D:/Study/Raspberry/QNX/ide-4.7-workspace/Bsp_Rasp/src/hardware/startup/lib/arm/a.le\libstartup.a(armv_cache_a9up.o) (cache_a9up_i)
D:/Study/Raspberry/QNX/ide-4.7-workspace/Bsp_Rasp/src/hardware/startup/lib/arm/a.le\libstartup.a(callout_cache_sheeva_v6.o)
                              D:/Study/Raspberry/QNX/ide-4.7-workspace/Bsp_Rasp/src/hardware/startup/lib/arm/a.le\libstartup.a(armv_cache_sheeva_v6.o) (cache_sheeva_i_v6)
D:/Study/Raspberry/QNX/ide-4.7-workspace/Bsp_Rasp/src/hardware/startup/lib/arm/a.le\libstartup.a(callout_cache_sheeva_v7.o)
                              D:/Study/Raspberry/QNX/ide-4.7-workspace/Bsp_Rasp/src/hardware/startup/lib/arm/a.le\libstartup.a(armv_cache_sheeva_v7.o) (cache_sheeva_i_v7)
C:/QNX650/target/qnx6/armle/usr/lib\libucl.a(n2b_d.o)
                              D:/Study/Raspberry/QNX/ide-4.7-workspace/Bsp_Rasp/src/hardware/startup/lib/arm/a.le\libstartup.a(uncompress_ucl.o) (ucl_nrv2b_decompress_8)
C:/QNX650/host/win32/x86/usr/lib/gcc/arm-unknown-nto-qnx6.5.0/4.4.2//libgcc.a(_udivsi3.o)
                              D:/Study/Raspberry/QNX/ide-4.7-workspace/Bsp_Rasp/src/hardware/startup/lib/arm/a.le\libstartup.a(add_interrupt.o) (__udivsi3)
C:/QNX650/host/win32/x86/usr/lib/gcc/arm-unknown-nto-qnx6.5.0/4.4.2//libgcc.a(_dvmd_nto.o)
                              C:/QNX650/host/win32/x86/usr/lib/gcc/arm-unknown-nto-qnx6.5.0/4.4.2//libgcc.a(_udivsi3.o) (__div0)
C:/QNX650/host/win32/x86/usr/lib/gcc/arm-unknown-nto-qnx6.5.0/4.4.2//libgcc.a(_udivdi3.o)
                              D:/Study/Raspberry/QNX/ide-4.7-workspace/Bsp_Rasp/src/hardware/startup/lib/arm/a.le\libstartup.a(kprintf.o) (__udivdi3)
C:/QNX650/host/win32/x86/usr/lib/gcc/arm-unknown-nto-qnx6.5.0/4.4.2//libgcc.a(_umoddi3.o)
                              D:/Study/Raspberry/QNX/ide-4.7-workspace/Bsp_Rasp/src/hardware/startup/lib/arm/a.le\libstartup.a(kprintf.o) (__umoddi3)
C:/QNX650/host/win32/x86/usr/lib/gcc/arm-unknown-nto-qnx6.5.0/4.4.2//libgcc.a(_umodsi3.o)
                              C:/QNX650/host/win32/x86/usr/lib/gcc/arm-unknown-nto-qnx6.5.0/4.4.2//libgcc.a(_udivdi3.o) (__umodsi3)
C:/QNX650/host/win32/x86/usr/lib/gcc/arm-unknown-nto-qnx6.5.0/4.4.2//libgcc.a(_clz.o)
                              C:/QNX650/host/win32/x86/usr/lib/gcc/arm-unknown-nto-qnx6.5.0/4.4.2//libgcc.a(_udivdi3.o) (__clz_tab)
C:/QNX650/target/qnx6/armle/lib\libc.a(hwi_find_item.o)
                              D:/Study/Raspberry/QNX/ide-4.7-workspace/Bsp_Rasp/src/hardware/startup/lib/arm/a.le\libstartup.a(hwi_add_device.o) (hwi_find_item)
C:/QNX650/target/qnx6/armle/lib\libc.a(hwi_off2tag.o)
                              D:/Study/Raspberry/QNX/ide-4.7-workspace/Bsp_Rasp/src/hardware/startup/lib/arm/a.le\libstartup.a(hwi_alloc.o) (hwi_off2tag)
C:/QNX650/target/qnx6/armle/lib\libc.a(hwi_tag2off.o)
                              D:/Study/Raspberry/QNX/ide-4.7-workspace/Bsp_Rasp/src/hardware/startup/lib/arm/a.le\libstartup.a(print_sysp.o) (hwi_tag2off)
C:/QNX650/target/qnx6/armle/lib\libc.a(memcmp.o)
                              D:/Study/Raspberry/QNX/ide-4.7-workspace/Bsp_Rasp/src/hardware/startup/lib/arm/a.le\libstartup.a(common_options.o) (memcmp)
C:/QNX650/target/qnx6/armle/lib\libc.a(memset.o)
                              D:/Study/Raspberry/QNX/ide-4.7-workspace/Bsp_Rasp/src/hardware/startup/lib/arm/a.le\libstartup.a(callouts.o) (memset)
C:/QNX650/target/qnx6/armle/lib\libc.a(strchr.o)
                              D:/Study/Raspberry/QNX/ide-4.7-workspace/Bsp_Rasp/src/hardware/startup/lib/arm/a.le\libstartup.a(common_options.o) (strchr)
C:/QNX650/target/qnx6/armle/lib\libc.a(strcmp.o)
                              D:/Study/Raspberry/QNX/ide-4.7-workspace/Bsp_Rasp/src/hardware/startup/lib/arm/a.le\libstartup.a(print_sysp.o) (strcmp)
C:/QNX650/target/qnx6/armle/lib\libc.a(strcpy.o)
                              D:/Study/Raspberry/QNX/ide-4.7-workspace/Bsp_Rasp/src/hardware/startup/lib/arm/a.le\libstartup.a(strings.o) (strcpy)
C:/QNX650/target/qnx6/armle/lib\libc.a(__cpu_flags.o)
                              D:/Study/Raspberry/QNX/ide-4.7-workspace/Bsp_Rasp/src/hardware/startup/lib/arm/a.le\libstartup.a(init_cpuinfo.o) (__cpu_flags)

Memory Configuration

Name             Origin             Length             Attributes
*default*        0x00000000         0xffffffff

Linker script and memory map

LOAD init_asinfo.o
LOAD init_hwinfo.o
LOAD init_intrinfo.o
LOAD init_pio.o
LOAD init_qtime_bcm2835.o
LOAD init_raminfo.o
LOAD main.o
LOAD rtc_time.o
LOAD D:/Study/Raspberry/QNX/ide-4.7-workspace/Bsp_Rasp/src/hardware/startup/lib/arm/a.le\libstartup.a
LOAD C:/QNX650/target/qnx6/armle/usr/lib\liblzo.a
LOAD C:/QNX650/target/qnx6/armle/usr/lib\libucl.a
LOAD C:/QNX650/target/qnx6/armle/usr/lib\libdrvr.a
LOAD C:/QNX650/host/win32/x86/usr/lib/gcc/arm-unknown-nto-qnx6.5.0/4.4.2//libgcc.a
LOAD C:/QNX650/target/qnx6/armle/lib\libc.a
LOAD C:/QNX650/target/qnx6/armle/lib\libc.a
LOAD C:/QNX650/host/win32/x86/usr/lib/gcc/arm-unknown-nto-qnx6.5.0/4.4.2//libgcc.a

.interp
 *(.interp)

.note.gnu.build-id
 *(.note.gnu.build-id)

.hash
 *(.hash)

.gnu.hash
 *(.gnu.hash)

.dynsym
 *(.dynsym)

.dynstr
 *(.dynstr)

.gnu.version
 *(.gnu.version)

.gnu.version_d
 *(.gnu.version_d)

.gnu.version_r
 *(.gnu.version_r)

.rel.init
 *(.rel.init)

.rela.init
 *(.rela.init)

.rel.text
 *(.rel.text)

.rela.text
 *(.rela.text)

.rel.fini
 *(.rel.fini)

.rela.fini
 *(.rela.fini)

.rel.rodata
 *(.rel.rodata)

.rela.rodata
 *(.rela.rodata)

.rel.data.rel.ro
 *(.rel.data.rel.ro)

.rela.data.rel.ro
 *(.rela.data.rel.ro)

.rel.data
 *(.rel.data)

.rela.data
 *(.rela.data)

.rel.tdata
 *(.rel.tdata)

.rela.tdata
 *(.rela.tdata)

.rel.tbss
 *(.rel.tbss)

.rela.tbss
 *(.rela.tbss)

.rel.ctors
 *(.rel.ctors)

.rela.ctors
 *(.rela.ctors)

.rel.dtors
 *(.rel.dtors)

.rela.dtors
 *(.rela.dtors)

.rel.got
 *(.rel.got)

.rela.got
 *(.rela.got)

.rel.bss
 *(.rel.bss)

.rela.bss
 *(.rela.bss)

.rel.plt
 *(.rel.plt)

.rela.plt
 *(.rela.plt)

.init
 *(.init)

.plt
 *(.plt)

.text           0x00000000     0xb7d8
 *(.text .stub)
 .text          0x00000000        0x4 init_asinfo.o
                0x00000000                init_asinfo
 .text          0x00000004       0x24 init_hwinfo.o
                0x00000004                get_board_name
                0x00000024                init_hwinfo
 .text          0x00000028       0x38 init_intrinfo.o
                0x00000028                init_intrinfo
 .text          0x00000060       0x28 init_pio.o
                0x00000060                pio_init
 .text          0x00000088       0xd8 init_qtime_bcm2835.o
                0x000000b4                init_qtime_bcm2835
 .text          0x00000160        0xc init_raminfo.o
                0x00000160                init_raminfo
 .text          0x0000016c      0x150 main.o
                0x0000016c                BCM2835_clock
                0x00000178                main
 .text          0x000002bc        0x0 rtc_time.o
 .text          0x000002bc      0x1ac D:/Study/Raspberry/QNX/ide-4.7-workspace/Bsp_Rasp/src/hardware/startup/lib/arm/a.le\libstartup.a(_main.o)
                0x000002f4                __stackavail
                0x000002fc                abort
                0x000002e8                __get_errno_ptr
                0x000002bc                strlen
                0x00000318                _main
 .text          0x00000468      0x1ac D:/Study/Raspberry/QNX/ide-4.7-workspace/Bsp_Rasp/src/hardware/startup/lib/arm/a.le\libstartup.a(add_interrupt.o)
                0x00000468                add_interrupt
                0x00000540                add_interrupt_array
 .text          0x00000614       0x8c D:/Study/Raspberry/QNX/ide-4.7-workspace/Bsp_Rasp/src/hardware/startup/lib/arm/a.le\libstartup.a(alloc_qtime.o)
                0x00000614                alloc_qtime
 .text          0x000006a0        0x4 D:/Study/Raspberry/QNX/ide-4.7-workspace/Bsp_Rasp/src/hardware/startup/lib/arm/a.le\libstartup.a(board_init.o)
                0x000006a0                board_init
 .text          0x000006a4       0xc8 D:/Study/Raspberry/QNX/ide-4.7-workspace/Bsp_Rasp/src/hardware/startup/lib/arm/a.le\libstartup.a(callout_debug_bcm2835.o)
                0x000006e8                display_char_bcm2835
                0x00000748                break_detect_bcm2835
                0x00000718                poll_key_bcm2835
 .text          0x0000076c      0x1b0 D:/Study/Raspberry/QNX/ide-4.7-workspace/Bsp_Rasp/src/hardware/startup/lib/arm/a.le\libstartup.a(callout_interrupt_bcm2835.o)
                0x00000820                interrupt_eoi_bcm2835_aic
                0x000007ac                interrupt_id_bcm2835_aic
                0x00000874                interrupt_mask_bcm2835_aic
                0x000008c8                interrupt_unmask_bcm2835_aic
 .text          0x0000091c       0x70 D:/Study/Raspberry/QNX/ide-4.7-workspace/Bsp_Rasp/src/hardware/startup/lib/arm/a.le\libstartup.a(callout_reboot_at91sam9xx.o)
                0x0000095c                reboot_at91sam9xx
 .text          0x0000098c       0xf0 D:/Study/Raspberry/QNX/ide-4.7-workspace/Bsp_Rasp/src/hardware/startup/lib/arm/a.le\libstartup.a(callout_timer_bcm2835.o)
                0x00000a30                timer_reload_bcm2835
                0x000009cc                timer_load_bcm2835
                0x00000a04                timer_value_bcm2835
 .text          0x00000a7c      0x490 D:/Study/Raspberry/QNX/ide-4.7-workspace/Bsp_Rasp/src/hardware/startup/lib/arm/a.le\libstartup.a(callouts.o)
                0x00000a7c                output_callouts
                0x00000ae0                callout_reloc_data
                0x00000ca4                add_callout_array
                0x00000c30                add_callout
                0x00000ba4                callout_register_data
                0x00000cdc                callout_output_one
 .text          0x00000f0c      0x73c D:/Study/Raspberry/QNX/ide-4.7-workspace/Bsp_Rasp/src/hardware/startup/lib/arm/a.le\libstartup.a(common_options.o)
                0x00000f0c                set_debug
                0x000010f8                select_debug
                0x00001284                handle_common_option
 .text          0x00001648       0x2c D:/Study/Raspberry/QNX/ide-4.7-workspace/Bsp_Rasp/src/hardware/startup/lib/arm/a.le\libstartup.a(cpu_common_options.o)
                0x00001648                cpu_handle_common_option
 .text          0x00001674       0x38 D:/Study/Raspberry/QNX/ide-4.7-workspace/Bsp_Rasp/src/hardware/startup/lib/arm/a.le\libstartup.a(cpu_startup.o)
                0x00001674                cpu_startup
 .text          0x000016ac       0x44 D:/Study/Raspberry/QNX/ide-4.7-workspace/Bsp_Rasp/src/hardware/startup/lib/arm/a.le\libstartup.a(cstart.o)
                0x000016ac                _start
 .text          0x000016f0       0x98 D:/Study/Raspberry/QNX/ide-4.7-workspace/Bsp_Rasp/src/hardware/startup/lib/arm/a.le\libstartup.a(debug.o)
                0x000016f0                print_syspage
 .text          0x00001788      0x14c D:/Study/Raspberry/QNX/ide-4.7-workspace/Bsp_Rasp/src/hardware/startup/lib/arm/a.le\libstartup.a(getopt.o)
                0x00001788                getopt
 .text          0x000018d4      0x100 D:/Study/Raspberry/QNX/ide-4.7-workspace/Bsp_Rasp/src/hardware/startup/lib/arm/a.le\libstartup.a(getsize.o)
                0x000018d4                getsize
 .text          0x000019d4      0x1bc D:/Study/Raspberry/QNX/ide-4.7-workspace/Bsp_Rasp/src/hardware/startup/lib/arm/a.le\libstartup.a(hw_serbcm2835debug.o)
                0x000019d4                put_bcm2835
                0x00001af4                init_bcm2835_debug
 .text          0x00001b90       0x50 D:/Study/Raspberry/QNX/ide-4.7-workspace/Bsp_Rasp/src/hardware/startup/lib/arm/a.le\libstartup.a(hwi_add_nanospin.o)
                0x00001b90                hwi_add_nanospin
 .text          0x00001be0      0x1d4 D:/Study/Raspberry/QNX/ide-4.7-workspace/Bsp_Rasp/src/hardware/startup/lib/arm/a.le\libstartup.a(hwi_alloc.o)
                0x00001c60                hwi_alloc_tag
                0x00001c04                hwi_grow_tag
                0x00001d04                hwi_alloc_item
                0x00001be0                __hwi_find_string
                0x00001bf4                __hwi_base
 .text          0x00001db4        0x4 D:/Study/Raspberry/QNX/ide-4.7-workspace/Bsp_Rasp/src/hardware/startup/lib/arm/a.le\libstartup.a(init_cacheattr.o)
                0x00001db4                init_cacheattr
 .text          0x00001db8      0x348 D:/Study/Raspberry/QNX/ide-4.7-workspace/Bsp_Rasp/src/hardware/startup/lib/arm/a.le\libstartup.a(init_cpuinfo.o)
                0x00002024                init_cpuinfo
                0x00001db8                init_one_cpuinfo
 .text          0x00002100      0x230 D:/Study/Raspberry/QNX/ide-4.7-workspace/Bsp_Rasp/src/hardware/startup/lib/arm/a.le\libstartup.a(init_mmu.o)
                0x00002100                init_mmu
 .text          0x00002330      0x964 D:/Study/Raspberry/QNX/ide-4.7-workspace/Bsp_Rasp/src/hardware/startup/lib/arm/a.le\libstartup.a(init_system_private.o)
                0x0000235c                init_system_private
 .text          0x00002c94       0xb8 D:/Study/Raspberry/QNX/ide-4.7-workspace/Bsp_Rasp/src/hardware/startup/lib/arm/a.le\libstartup.a(jtag.o)
                0x00002c94                jtag_store_syspage_addr
                0x00002cf4                jtag_reserve_memory
                0x00002cdc                jtag_reserve_syspage_addr
 .text          0x00002d4c      0x44c D:/Study/Raspberry/QNX/ide-4.7-workspace/Bsp_Rasp/src/hardware/startup/lib/arm/a.le\libstartup.a(kprintf.o)
                0x000030c0                get_print_char
                0x000030b0                set_print_char
                0x000030d0                ksprintf
                0x00003164                crash
                0x00003134                kprintf
 .text          0x00003198      0x120 D:/Study/Raspberry/QNX/ide-4.7-workspace/Bsp_Rasp/src/hardware/startup/lib/arm/a.le\libstartup.a(load_ifs.o)
                0x00003198                load_ifs
 .text          0x000032b8       0x10 D:/Study/Raspberry/QNX/ide-4.7-workspace/Bsp_Rasp/src/hardware/startup/lib/arm/a.le\libstartup.a(map_callout_io.o)
                0x000032b8                callout_io_map
 .text          0x000032c8        0xc D:/Study/Raspberry/QNX/ide-4.7-workspace/Bsp_Rasp/src/hardware/startup/lib/arm/a.le\libstartup.a(map_startup_io.o)
                0x000032c8                startup_io_map
                0x000032d0                startup_io_unmap
 .text          0x000032d4        0xc D:/Study/Raspberry/QNX/ide-4.7-workspace/Bsp_Rasp/src/hardware/startup/lib/arm/a.le\libstartup.a(map_startup_mem.o)
                0x000032d4                startup_memory_map
                0x000032dc                startup_memory_unmap
 .text          0x000032e0       0xcc D:/Study/Raspberry/QNX/ide-4.7-workspace/Bsp_Rasp/src/hardware/startup/lib/arm/a.le\libstartup.a(memfuncs.o)
                0x000032e0                copy_memory
 .text          0x000033ac       0x60 D:/Study/Raspberry/QNX/ide-4.7-workspace/Bsp_Rasp/src/hardware/startup/lib/arm/a.le\libstartup.a(memmove.o)
                0x000033ac                memmove
 .text          0x0000340c      0xa5c D:/Study/Raspberry/QNX/ide-4.7-workspace/Bsp_Rasp/src/hardware/startup/lib/arm/a.le\libstartup.a(print_sysp.o)
                0x0000340c                print_syspage_sections
                0x00003920                print_qtime
                0x00003d30                print_strings
                0x00003a48                print_meminfo
                0x00003dfc                print_typed_strings
                0x000039b0                print_asinfo
                0x000036c8                print_intrinfo
                0x000036a0                print_smp
                0x00003c18                print_hwinfo
                0x00003798                print_callout
                0x00003b98                print_syspage_enable
                0x0000367c                print_pminfo
                0x00003600                print_mdriver
                0x00003820                print_cacheattr
                0x00003898                print_cpuinfo
                0x00003ad4                print_system_private
 .text          0x00003e68     0x10a8 D:/Study/Raspberry/QNX/ide-4.7-workspace/Bsp_Rasp/src/hardware/startup/lib/arm/a.le\libstartup.a(ram.o)
                0x000040dc                find_ram_in_range
                0x0000455c                watch_add_ram
                0x000045bc                add_sysram
                0x000044f4                avoid_ram
                0x00003e68                find_top_ram_aligned
                0x00004ebc                calloc_ram
                0x00004d7c                add_ram
                0x00004ce8                reserve_ram
                0x00004864                alloc_ram
                0x000040c4                find_top_ram
                0x00004388                find_ram
                0x000043b8                ws_alloc
 .text          0x00004f10      0xa94 D:/Study/Raspberry/QNX/ide-4.7-workspace/Bsp_Rasp/src/hardware/startup/lib/arm/a.le\libstartup.a(restore_ifs.o)
                0x000050a8                rifs_restore_ifs2
                0x00005208                rifs_save_elf32data
                0x00005924                load_ifs2_nonbootable
                0x000053e0                rifs_restore_ifs
                0x000057e4                rifs_load_ifs2
                0x00004fac                rifs_set_cksum
 .text          0x000059a4        0x8 D:/Study/Raspberry/QNX/ide-4.7-workspace/Bsp_Rasp/src/hardware/startup/lib/arm/a.le\libstartup.a(rtc_time.o)
                0x000059a4                rtc_time
 .text          0x000059ac       0x90 D:/Study/Raspberry/QNX/ide-4.7-workspace/Bsp_Rasp/src/hardware/startup/lib/arm/a.le\libstartup.a(startnext.o)
                0x000059ac                startnext
 .text          0x00005a3c       0x64 D:/Study/Raspberry/QNX/ide-4.7-workspace/Bsp_Rasp/src/hardware/startup/lib/arm/a.le\libstartup.a(startup_info.o)
                0x00005a3c                find_startup_info
 .text          0x00005aa0      0x26c D:/Study/Raspberry/QNX/ide-4.7-workspace/Bsp_Rasp/src/hardware/startup/lib/arm/a.le\libstartup.a(strings.o)
                0x00005b1c                del_typed_string
                0x00005aa0                find_typed_string
                0x00005c90                add_typed_string
                0x00005bcc                add_string
 .text          0x00005d0c      0x108 D:/Study/Raspberry/QNX/ide-4.7-workspace/Bsp_Rasp/src/hardware/startup/lib/arm/a.le\libstartup.a(strtoul.o)
                0x00005e10                strtoul
                0x00005d0c                strtopaddr
 .text          0x00005e14      0x4f0 D:/Study/Raspberry/QNX/ide-4.7-workspace/Bsp_Rasp/src/hardware/startup/lib/arm/a.le\libstartup.a(syspage_memory.o)
                0x00005e68                alloc_syspage_memory
                0x00006104                grow_syspage_section
                0x0000609c                reloc_syspage_memory
                0x00006234                init_syspage_memory
                0x00005e14                write_syspage_memory
                0x00006200                set_syspage_section
 .text          0x00006304        0x4 D:/Study/Raspberry/QNX/ide-4.7-workspace/Bsp_Rasp/src/hardware/startup/lib/arm/a.le\libstartup.a(tweak_cmdline.o)
                0x00006304                tweak_cmdline
 .text          0x00006308       0x90 D:/Study/Raspberry/QNX/ide-4.7-workspace/Bsp_Rasp/src/hardware/startup/lib/arm/a.le\libstartup.a(uncompress.o)
                0x00006308                uncompress
 .text          0x00006398       0xac D:/Study/Raspberry/QNX/ide-4.7-workspace/Bsp_Rasp/src/hardware/startup/lib/arm/a.le\libstartup.a(uncompress_ucl.o)
                0x00006398                uncompress_ucl
 .text          0x00006444      0x4f8 D:/Study/Raspberry/QNX/ide-4.7-workspace/Bsp_Rasp/src/hardware/startup/lib/arm/a.le\libstartup.a(arm_cache.o)
                0x0000664c                arm_add_cache
                0x00006444                arm_v7_add_cache
 .text          0x0000693c      0x118 D:/Study/Raspberry/QNX/ide-4.7-workspace/Bsp_Rasp/src/hardware/startup/lib/arm/a.le\libstartup.a(arm_cpuspeed.o)
                0x0000693c                arm_cpuspeed
 .text          0x00006a54      0x5cc D:/Study/Raspberry/QNX/ide-4.7-workspace/Bsp_Rasp/src/hardware/startup/lib/arm/a.le\libstartup.a(arm_map.o)
                0x00006e58                arm_map
                0x00006dcc                arm_map_cpu
                0x00006d5c                elf_vaddr_to_paddr
                0x00006bc4                map_ptbl
                0x00006c1c                arm_pdmap
                0x00006c7c                arm_scmap
                0x00006d04                arm_scunmap
 .text          0x00007020      0x174 D:/Study/Raspberry/QNX/ide-4.7-workspace/Bsp_Rasp/src/hardware/startup/lib/arm/a.le\libstartup.a(arm_pte.o)
                0x00007020                arm_pte_setup
 .text          0x00007194       0xa8 D:/Study/Raspberry/QNX/ide-4.7-workspace/Bsp_Rasp/src/hardware/startup/lib/arm/a.le\libstartup.a(armv_chip_detect.o)
                0x00007194                armv_chip_detect
 .text          0x0000723c        0x0 D:/Study/Raspberry/QNX/ide-4.7-workspace/Bsp_Rasp/src/hardware/startup/lib/arm/a.le\libstartup.a(armv_list.o)
 .text          0x0000723c       0x3c D:/Study/Raspberry/QNX/ide-4.7-workspace/Bsp_Rasp/src/hardware/startup/lib/arm/a.le\libstartup.a(as_add.o)
                0x0000723c                as_add
 .text          0x00007278       0xd8 D:/Study/Raspberry/QNX/ide-4.7-workspace/Bsp_Rasp/src/hardware/startup/lib/arm/a.le\libstartup.a(as_add64.o)
                0x00007278                as_add64
 .text          0x00007350      0x32c D:/Study/Raspberry/QNX/ide-4.7-workspace/Bsp_Rasp/src/hardware/startup/lib/arm/a.le\libstartup.a(as_add_containing.o)
                0x00007350                as_add_containing
 .text          0x0000767c       0x38 D:/Study/Raspberry/QNX/ide-4.7-workspace/Bsp_Rasp/src/hardware/startup/lib/arm/a.le\libstartup.a(as_default.o)
                0x0000767c                as_default
 .text          0x000076b4      0x140 D:/Study/Raspberry/QNX/ide-4.7-workspace/Bsp_Rasp/src/hardware/startup/lib/arm/a.le\libstartup.a(as_find.o)
                0x000076b4                as_find
 .text          0x000077f4      0x150 D:/Study/Raspberry/QNX/ide-4.7-workspace/Bsp_Rasp/src/hardware/startup/lib/arm/a.le\libstartup.a(as_find_containing.o)
                0x000077f4                as_find_containing
 .text          0x00007944       0x14 D:/Study/Raspberry/QNX/ide-4.7-workspace/Bsp_Rasp/src/hardware/startup/lib/arm/a.le\libstartup.a(as_off2info.o)
                0x00007944                as_off2info
 .text          0x00007958        0x4 D:/Study/Raspberry/QNX/ide-4.7-workspace/Bsp_Rasp/src/hardware/startup/lib/arm/a.le\libstartup.a(board_cpu_startup.o)
                0x00007958                board_cpu_startup
 .text          0x0000795c       0xc4 D:/Study/Raspberry/QNX/ide-4.7-workspace/Bsp_Rasp/src/hardware/startup/lib/arm/a.le\libstartup.a(cpu_startnext.o)
                0x0000795c                cpu_startnext
 .text          0x00007a20      0x1ec D:/Study/Raspberry/QNX/ide-4.7-workspace/Bsp_Rasp/src/hardware/startup/lib/arm/a.le\libstartup.a(cpu_syspage_memory.o)
                0x00007a24                cpu_alloc_syspage_memory
                0x00007a20                cpu_write_syspage_memory
                0x00007bfc                cpu_init_syspage_memory
 .text          0x00007c0c        0x4 D:/Study/Raspberry/QNX/ide-4.7-workspace/Bsp_Rasp/src/hardware/startup/lib/arm/a.le\libstartup.a(crash_done.o)
                0x00007c0c                crash_done
 .text          0x00007c10        0x4 D:/Study/Raspberry/QNX/ide-4.7-workspace/Bsp_Rasp/src/hardware/startup/lib/arm/a.le\libstartup.a(dummy_print_char.o)
                0x00007c10                dummy_print_char
 .text          0x00007c14      0x390 D:/Study/Raspberry/QNX/ide-4.7-workspace/Bsp_Rasp/src/hardware/startup/lib/arm/a.le\libstartup.a(elf.o)
                0x00007c14                is_elf
                0x00007cd4                load_elf32
 .text          0x00007fa4      0x254 D:/Study/Raspberry/QNX/ide-4.7-workspace/Bsp_Rasp/src/hardware/startup/lib/arm/a.le\libstartup.a(elf_map.o)
                0x00007fa4                elf_map
 .text          0x000081f8       0xec D:/Study/Raspberry/QNX/ide-4.7-workspace/Bsp_Rasp/src/hardware/startup/lib/arm/a.le\libstartup.a(hwi_add_device.o)
                0x000081f8                hwi_add_device
 .text          0x000082e4       0x60 D:/Study/Raspberry/QNX/ide-4.7-workspace/Bsp_Rasp/src/hardware/startup/lib/arm/a.le\libstartup.a(hwi_default.o)
                0x000082e4                hwi_default
 .text          0x00008344        0x0 D:/Study/Raspberry/QNX/ide-4.7-workspace/Bsp_Rasp/src/hardware/startup/lib/arm/a.le\libstartup.a(mdriver_max.o)
 .text          0x00008344      0x140 D:/Study/Raspberry/QNX/ide-4.7-workspace/Bsp_Rasp/src/hardware/startup/lib/arm/a.le\libstartup.a(memcpy.o)
                0x00008344                memcpy
 .text          0x00008484       0x28 D:/Study/Raspberry/QNX/ide-4.7-workspace/Bsp_Rasp/src/hardware/startup/lib/arm/a.le\libstartup.a(timer_ns2tick.o)
                0x00008484                timer_ns2tick
 .text          0x000084ac       0x98 D:/Study/Raspberry/QNX/ide-4.7-workspace/Bsp_Rasp/src/hardware/startup/lib/arm/a.le\libstartup.a(timer_tick2ns.o)
                0x000084ac                timer_tick2ns
 *fill*         0x00008544       0x1c 00000000
 .text          0x00008560       0x80 D:/Study/Raspberry/QNX/ide-4.7-workspace/Bsp_Rasp/src/hardware/startup/lib/arm/a.le\libstartup.a(vstart_v4.o)
                0x00008560                vstart_v4
 .text          0x000085e0      0x18c D:/Study/Raspberry/QNX/ide-4.7-workspace/Bsp_Rasp/src/hardware/startup/lib/arm/a.le\libstartup.a(add_cache.o)
                0x000086e8                add_cache
                0x000085e0                add_cache_ways
 .text          0x0000876c        0x0 D:/Study/Raspberry/QNX/ide-4.7-workspace/Bsp_Rasp/src/hardware/startup/lib/arm/a.le\libstartup.a(armv_chip_1020.o)
 .text          0x0000876c        0x0 D:/Study/Raspberry/QNX/ide-4.7-workspace/Bsp_Rasp/src/hardware/startup/lib/arm/a.le\libstartup.a(armv_chip_1022.o)
 .text          0x0000876c        0x0 D:/Study/Raspberry/QNX/ide-4.7-workspace/Bsp_Rasp/src/hardware/startup/lib/arm/a.le\libstartup.a(armv_chip_1136.o)
 .text          0x0000876c        0x0 D:/Study/Raspberry/QNX/ide-4.7-workspace/Bsp_Rasp/src/hardware/startup/lib/arm/a.le\libstartup.a(armv_chip_1176.o)
 .text          0x0000876c        0x0 D:/Study/Raspberry/QNX/ide-4.7-workspace/Bsp_Rasp/src/hardware/startup/lib/arm/a.le\libstartup.a(armv_chip_1200.o)
 .text          0x0000876c        0x0 D:/Study/Raspberry/QNX/ide-4.7-workspace/Bsp_Rasp/src/hardware/startup/lib/arm/a.le\libstartup.a(armv_chip_23xx.o)
 .text          0x0000876c        0x0 D:/Study/Raspberry/QNX/ide-4.7-workspace/Bsp_Rasp/src/hardware/startup/lib/arm/a.le\libstartup.a(armv_chip_2400.o)
 .text          0x0000876c        0x0 D:/Study/Raspberry/QNX/ide-4.7-workspace/Bsp_Rasp/src/hardware/startup/lib/arm/a.le\libstartup.a(armv_chip_2800.o)
 .text          0x0000876c        0x0 D:/Study/Raspberry/QNX/ide-4.7-workspace/Bsp_Rasp/src/hardware/startup/lib/arm/a.le\libstartup.a(armv_chip_425.o)
 .text          0x0000876c        0x0 D:/Study/Raspberry/QNX/ide-4.7-workspace/Bsp_Rasp/src/hardware/startup/lib/arm/a.le\libstartup.a(armv_chip_465.o)
 .text          0x0000876c        0x0 D:/Study/Raspberry/QNX/ide-4.7-workspace/Bsp_Rasp/src/hardware/startup/lib/arm/a.le\libstartup.a(armv_chip_720.o)
 .text          0x0000876c        0x0 D:/Study/Raspberry/QNX/ide-4.7-workspace/Bsp_Rasp/src/hardware/startup/lib/arm/a.le\libstartup.a(armv_chip_80200.o)
 .text          0x0000876c        0x0 D:/Study/Raspberry/QNX/ide-4.7-workspace/Bsp_Rasp/src/hardware/startup/lib/arm/a.le\libstartup.a(armv_chip_920.o)
 .text          0x0000876c        0x0 D:/Study/Raspberry/QNX/ide-4.7-workspace/Bsp_Rasp/src/hardware/startup/lib/arm/a.le\libstartup.a(armv_chip_922.o)
 .text          0x0000876c        0x0 D:/Study/Raspberry/QNX/ide-4.7-workspace/Bsp_Rasp/src/hardware/startup/lib/arm/a.le\libstartup.a(armv_chip_925.o)
 .text          0x0000876c        0x0 D:/Study/Raspberry/QNX/ide-4.7-workspace/Bsp_Rasp/src/hardware/startup/lib/arm/a.le\libstartup.a(armv_chip_926.o)
 .text          0x0000876c        0x0 D:/Study/Raspberry/QNX/ide-4.7-workspace/Bsp_Rasp/src/hardware/startup/lib/arm/a.le\libstartup.a(armv_chip_a15.o)
 .text          0x0000876c        0x0 D:/Study/Raspberry/QNX/ide-4.7-workspace/Bsp_Rasp/src/hardware/startup/lib/arm/a.le\libstartup.a(armv_chip_a8.o)
 .text          0x0000876c        0x0 D:/Study/Raspberry/QNX/ide-4.7-workspace/Bsp_Rasp/src/hardware/startup/lib/arm/a.le\libstartup.a(armv_chip_a9.o)
 .text          0x0000876c        0x0 D:/Study/Raspberry/QNX/ide-4.7-workspace/Bsp_Rasp/src/hardware/startup/lib/arm/a.le\libstartup.a(armv_chip_mp11.o)
 .text          0x0000876c        0x0 D:/Study/Raspberry/QNX/ide-4.7-workspace/Bsp_Rasp/src/hardware/startup/lib/arm/a.le\libstartup.a(armv_chip_pxa210b.o)
 .text          0x0000876c        0x0 D:/Study/Raspberry/QNX/ide-4.7-workspace/Bsp_Rasp/src/hardware/startup/lib/arm/a.le\libstartup.a(armv_chip_pxa210c.o)
 .text          0x0000876c        0x0 D:/Study/Raspberry/QNX/ide-4.7-workspace/Bsp_Rasp/src/hardware/startup/lib/arm/a.le\libstartup.a(armv_chip_pxa250a.o)
 .text          0x0000876c        0x0 D:/Study/Raspberry/QNX/ide-4.7-workspace/Bsp_Rasp/src/hardware/startup/lib/arm/a.le\libstartup.a(armv_chip_pxa250b.o)
 .text          0x0000876c        0x0 D:/Study/Raspberry/QNX/ide-4.7-workspace/Bsp_Rasp/src/hardware/startup/lib/arm/a.le\libstartup.a(armv_chip_pxa255.o)
 .text          0x0000876c        0x0 D:/Study/Raspberry/QNX/ide-4.7-workspace/Bsp_Rasp/src/hardware/startup/lib/arm/a.le\libstartup.a(armv_chip_pxa270.o)
 .text          0x0000876c        0x0 D:/Study/Raspberry/QNX/ide-4.7-workspace/Bsp_Rasp/src/hardware/startup/lib/arm/a.le\libstartup.a(armv_chip_sa1100.o)
 .text          0x0000876c        0x0 D:/Study/Raspberry/QNX/ide-4.7-workspace/Bsp_Rasp/src/hardware/startup/lib/arm/a.le\libstartup.a(armv_chip_sa1110.o)
 .text          0x0000876c        0x0 D:/Study/Raspberry/QNX/ide-4.7-workspace/Bsp_Rasp/src/hardware/startup/lib/arm/a.le\libstartup.a(armv_chip_sheeva.o)
 .text          0x0000876c       0x28 D:/Study/Raspberry/QNX/ide-4.7-workspace/Bsp_Rasp/src/hardware/startup/lib/arm/a.le\libstartup.a(armv_detect_a9.o)
                0x0000876c                armv_detect_a9
 .text          0x00008794       0xd8 D:/Study/Raspberry/QNX/ide-4.7-workspace/Bsp_Rasp/src/hardware/startup/lib/arm/a.le\libstartup.a(armv_detect_sheeva.o)
                0x00008800                armv_sheeva_wmmx_detect
                0x00008794                armv_detect_sheeva
                0x000087d4                armv_sheeva_errata_check
 .text          0x0000886c        0x0 D:/Study/Raspberry/QNX/ide-4.7-workspace/Bsp_Rasp/src/hardware/startup/lib/arm/a.le\libstartup.a(armv_pte_ixp2xxx.o)
 .text          0x0000886c        0x0 D:/Study/Raspberry/QNX/ide-4.7-workspace/Bsp_Rasp/src/hardware/startup/lib/arm/a.le\libstartup.a(armv_pte_v4wb.o)
 .text          0x0000886c        0x0 D:/Study/Raspberry/QNX/ide-4.7-workspace/Bsp_Rasp/src/hardware/startup/lib/arm/a.le\libstartup.a(armv_pte_v4wt.o)
 .text          0x0000886c        0x0 D:/Study/Raspberry/QNX/ide-4.7-workspace/Bsp_Rasp/src/hardware/startup/lib/arm/a.le\libstartup.a(armv_pte_v5wa.o)
 .text          0x0000886c        0x0 D:/Study/Raspberry/QNX/ide-4.7-workspace/Bsp_Rasp/src/hardware/startup/lib/arm/a.le\libstartup.a(armv_pte_v5wb.o)
 .text          0x0000886c        0x0 D:/Study/Raspberry/QNX/ide-4.7-workspace/Bsp_Rasp/src/hardware/startup/lib/arm/a.le\libstartup.a(armv_pte_v5wt.o)
 .text          0x0000886c        0x0 D:/Study/Raspberry/QNX/ide-4.7-workspace/Bsp_Rasp/src/hardware/startup/lib/arm/a.le\libstartup.a(armv_pte_v6mp.o)
 .text          0x0000886c        0x0 D:/Study/Raspberry/QNX/ide-4.7-workspace/Bsp_Rasp/src/hardware/startup/lib/arm/a.le\libstartup.a(armv_pte_v6wb.o)
 .text          0x0000886c        0x0 D:/Study/Raspberry/QNX/ide-4.7-workspace/Bsp_Rasp/src/hardware/startup/lib/arm/a.le\libstartup.a(armv_pte_v6wt.o)
 .text          0x0000886c        0x0 D:/Study/Raspberry/QNX/ide-4.7-workspace/Bsp_Rasp/src/hardware/startup/lib/arm/a.le\libstartup.a(armv_pte_v7mp.o)
 .text          0x0000886c        0x0 D:/Study/Raspberry/QNX/ide-4.7-workspace/Bsp_Rasp/src/hardware/startup/lib/arm/a.le\libstartup.a(armv_pte_v7wa.o)
 .text          0x0000886c        0x0 D:/Study/Raspberry/QNX/ide-4.7-workspace/Bsp_Rasp/src/hardware/startup/lib/arm/a.le\libstartup.a(armv_pte_v7wb.o)
 .text          0x0000886c        0x0 D:/Study/Raspberry/QNX/ide-4.7-workspace/Bsp_Rasp/src/hardware/startup/lib/arm/a.le\libstartup.a(armv_pte_v7wt.o)
 .text          0x0000886c        0x0 D:/Study/Raspberry/QNX/ide-4.7-workspace/Bsp_Rasp/src/hardware/startup/lib/arm/a.le\libstartup.a(armv_pte_xsc3.o)
 .text          0x0000886c       0x38 D:/Study/Raspberry/QNX/ide-4.7-workspace/Bsp_Rasp/src/hardware/startup/lib/arm/a.le\libstartup.a(armv_setup_1136.o)
                0x0000886c                armv_setup_1136
 .text          0x000088a4       0x88 D:/Study/Raspberry/QNX/ide-4.7-workspace/Bsp_Rasp/src/hardware/startup/lib/arm/a.le\libstartup.a(armv_setup_a15.o)
                0x000088a4                armv_setup_a15
 .text          0x0000892c        0x8 D:/Study/Raspberry/QNX/ide-4.7-workspace/Bsp_Rasp/src/hardware/startup/lib/arm/a.le\libstartup.a(armv_setup_a8.o)
                0x0000892c                armv_setup_a8
 .text          0x00008934       0xbc D:/Study/Raspberry/QNX/ide-4.7-workspace/Bsp_Rasp/src/hardware/startup/lib/arm/a.le\libstartup.a(armv_setup_mp11.o)
                0x00008934                armv_setup_mp11
 .text          0x000089f0       0xa0 D:/Study/Raspberry/QNX/ide-4.7-workspace/Bsp_Rasp/src/hardware/startup/lib/arm/a.le\libstartup.a(armv_setup_v6.o)
                0x000089f0                armv_setup_v6
 .text          0x00008a90       0xd4 D:/Study/Raspberry/QNX/ide-4.7-workspace/Bsp_Rasp/src/hardware/startup/lib/arm/a.le\libstartup.a(armv_setup_v7.o)
                0x00008a90                armv_setup_v7
 .text          0x00008b64       0x24 D:/Study/Raspberry/QNX/ide-4.7-workspace/Bsp_Rasp/src/hardware/startup/lib/arm/a.le\libstartup.a(armv_setup_xscale.o)
                0x00008b64                armv_setup_xscale
 .text          0x00008b88        0x4 D:/Study/Raspberry/QNX/ide-4.7-workspace/Bsp_Rasp/src/hardware/startup/lib/arm/a.le\libstartup.a(board_cpu_startnext.o)
                0x00008b88                board_cpu_startnext
 .text          0x00008b8c       0x54 D:/Study/Raspberry/QNX/ide-4.7-workspace/Bsp_Rasp/src/hardware/startup/lib/arm/a.le\libstartup.a(callout_page_1020.o)
                0x00008bd0                page_flush_deferred_1020
                0x00008b8c                page_flush_1020
 .text          0x00008be0       0x54 D:/Study/Raspberry/QNX/ide-4.7-workspace/Bsp_Rasp/src/hardware/startup/lib/arm/a.le\libstartup.a(callout_page_1136.o)
                0x00008c20                page_flush_deferred_1136
                0x00008be0                page_flush_1136
 .text          0x00008c34       0x38 D:/Study/Raspberry/QNX/ide-4.7-workspace/Bsp_Rasp/src/hardware/startup/lib/arm/a.le\libstartup.a(callout_page_720.o)
                0x00008c54                page_flush_deferred_720
                0x00008c34                page_flush_720
 .text          0x00008c6c       0x54 D:/Study/Raspberry/QNX/ide-4.7-workspace/Bsp_Rasp/src/hardware/startup/lib/arm/a.le\libstartup.a(callout_page_920.o)
                0x00008c6c                page_flush_920
                0x00008cb0                page_flush_deferred_920
 .text          0x00008cc0       0x54 D:/Study/Raspberry/QNX/ide-4.7-workspace/Bsp_Rasp/src/hardware/startup/lib/arm/a.le\libstartup.a(callout_page_925.o)
                0x00008cc0                page_flush_925
                0x00008d04                page_flush_deferred_925
 .text          0x00008d14       0x6c D:/Study/Raspberry/QNX/ide-4.7-workspace/Bsp_Rasp/src/hardware/startup/lib/arm/a.le\libstartup.a(callout_page_a15.o)
                0x00008d70                page_flush_deferred_a15
                0x00008d14                page_flush_a15
 .text          0x00008d80       0x5c D:/Study/Raspberry/QNX/ide-4.7-workspace/Bsp_Rasp/src/hardware/startup/lib/arm/a.le\libstartup.a(callout_page_a8.o)
                0x00008d80                page_flush_a8
                0x00008dcc                page_flush_deferred_a8
 .text          0x00008ddc       0x54 D:/Study/Raspberry/QNX/ide-4.7-workspace/Bsp_Rasp/src/hardware/startup/lib/arm/a.le\libstartup.a(callout_page_mp11.o)
                0x00008ddc                page_flush_mp11
                0x00008e20                page_flush_deferred_mp11
 .text          0x00008e30       0x60 D:/Study/Raspberry/QNX/ide-4.7-workspace/Bsp_Rasp/src/hardware/startup/lib/arm/a.le\libstartup.a(callout_page_sa.o)
                0x00008e70                page_flush_deferred_sa
                0x00008e30                page_flush_sa
 .text          0x00008e90       0x64 D:/Study/Raspberry/QNX/ide-4.7-workspace/Bsp_Rasp/src/hardware/startup/lib/arm/a.le\libstartup.a(callout_page_xsc3.o)
                0x00008ee4                page_flush_deferred_xsc3
                0x00008e90                page_flush_xsc3
 .text          0x00008ef4       0x5c D:/Study/Raspberry/QNX/ide-4.7-workspace/Bsp_Rasp/src/hardware/startup/lib/arm/a.le\libstartup.a(callout_page_xscale.o)
                0x00008ef4                page_flush_xscale
                0x00008f40                page_flush_deferred_xscale
 .text          0x00008f50       0x44 D:/Study/Raspberry/QNX/ide-4.7-workspace/Bsp_Rasp/src/hardware/startup/lib/arm/a.le\libstartup.a(callout_power_926.o)
                0x00008f50                power_926
 .text          0x00008f94       0x20 D:/Study/Raspberry/QNX/ide-4.7-workspace/Bsp_Rasp/src/hardware/startup/lib/arm/a.le\libstartup.a(callout_power_cp15_wfi.o)
                0x00008f94                power_cp15_wfi
 .text          0x00008fb4       0xb8 D:/Study/Raspberry/QNX/ide-4.7-workspace/Bsp_Rasp/src/hardware/startup/lib/arm/a.le\libstartup.a(callout_power_sa1100.o)
                0x0000901c                power_sa1100
 .text          0x0000906c       0x2c D:/Study/Raspberry/QNX/ide-4.7-workspace/Bsp_Rasp/src/hardware/startup/lib/arm/a.le\libstartup.a(callout_power_v7_wfi.o)
                0x0000906c                power_v7_wfi
 .text          0x00009098       0x24 D:/Study/Raspberry/QNX/ide-4.7-workspace/Bsp_Rasp/src/hardware/startup/lib/arm/a.le\libstartup.a(callout_power_xscale.o)
                0x00009098                power_xscale
 *fill*         0x000090bc        0x4 00000000
 .text          0x000090c0       0x80 D:/Study/Raspberry/QNX/ide-4.7-workspace/Bsp_Rasp/src/hardware/startup/lib/arm/a.le\libstartup.a(vstart_v6.o)
                0x000090c0                vstart_v6
 .text          0x00009140       0xa0 D:/Study/Raspberry/QNX/ide-4.7-workspace/Bsp_Rasp/src/hardware/startup/lib/arm/a.le\libstartup.a(vstart_v7.o)
                0x00009140                vstart_v7
 .text          0x000091e0      0x14c D:/Study/Raspberry/QNX/ide-4.7-workspace/Bsp_Rasp/src/hardware/startup/lib/arm/a.le\libstartup.a(arm_gic.o)
                0x00009260                arm_gic_init
                0x000091e0                arm_gic_cpu_init
 .text          0x0000932c        0x0 D:/Study/Raspberry/QNX/ide-4.7-workspace/Bsp_Rasp/src/hardware/startup/lib/arm/a.le\libstartup.a(armv_cache_1020.o)
 .text          0x0000932c        0x0 D:/Study/Raspberry/QNX/ide-4.7-workspace/Bsp_Rasp/src/hardware/startup/lib/arm/a.le\libstartup.a(armv_cache_1136.o)
 .text          0x0000932c        0x0 D:/Study/Raspberry/QNX/ide-4.7-workspace/Bsp_Rasp/src/hardware/startup/lib/arm/a.le\libstartup.a(armv_cache_720.o)
 .text          0x0000932c        0x0 D:/Study/Raspberry/QNX/ide-4.7-workspace/Bsp_Rasp/src/hardware/startup/lib/arm/a.le\libstartup.a(armv_cache_920.o)
 .text          0x0000932c        0x0 D:/Study/Raspberry/QNX/ide-4.7-workspace/Bsp_Rasp/src/hardware/startup/lib/arm/a.le\libstartup.a(armv_cache_925.o)
 .text          0x0000932c        0x0 D:/Study/Raspberry/QNX/ide-4.7-workspace/Bsp_Rasp/src/hardware/startup/lib/arm/a.le\libstartup.a(armv_cache_926.o)
 .text          0x0000932c        0x0 D:/Study/Raspberry/QNX/ide-4.7-workspace/Bsp_Rasp/src/hardware/startup/lib/arm/a.le\libstartup.a(armv_cache_a15.o)
 .text          0x0000932c        0x0 D:/Study/Raspberry/QNX/ide-4.7-workspace/Bsp_Rasp/src/hardware/startup/lib/arm/a.le\libstartup.a(armv_cache_a8.o)
 .text          0x0000932c        0x0 D:/Study/Raspberry/QNX/ide-4.7-workspace/Bsp_Rasp/src/hardware/startup/lib/arm/a.le\libstartup.a(armv_cache_mp11.o)
 .text          0x0000932c        0x0 D:/Study/Raspberry/QNX/ide-4.7-workspace/Bsp_Rasp/src/hardware/startup/lib/arm/a.le\libstartup.a(armv_cache_sa1100.o)
 .text          0x0000932c        0x0 D:/Study/Raspberry/QNX/ide-4.7-workspace/Bsp_Rasp/src/hardware/startup/lib/arm/a.le\libstartup.a(armv_cache_xsc3.o)
 .text          0x0000932c        0x0 D:/Study/Raspberry/QNX/ide-4.7-workspace/Bsp_Rasp/src/hardware/startup/lib/arm/a.le\libstartup.a(armv_cache_xscale.o)
 .text          0x0000932c        0x0 D:/Study/Raspberry/QNX/ide-4.7-workspace/Bsp_Rasp/src/hardware/startup/lib/arm/a.le\libstartup.a(armv_chip_a9mp.o)
 .text          0x0000932c        0x0 D:/Study/Raspberry/QNX/ide-4.7-workspace/Bsp_Rasp/src/hardware/startup/lib/arm/a.le\libstartup.a(armv_chip_a9up.o)
 .text          0x0000932c        0x0 D:/Study/Raspberry/QNX/ide-4.7-workspace/Bsp_Rasp/src/hardware/startup/lib/arm/a.le\libstartup.a(armv_chip_sheeva_v6.o)
 .text          0x0000932c        0x0 D:/Study/Raspberry/QNX/ide-4.7-workspace/Bsp_Rasp/src/hardware/startup/lib/arm/a.le\libstartup.a(armv_chip_sheeva_v7.o)
 .text          0x0000932c        0x0 D:/Study/Raspberry/QNX/ide-4.7-workspace/Bsp_Rasp/src/hardware/startup/lib/arm/a.le\libstartup.a(armv_pte_v6wa.o)
 .text          0x0000932c      0x10c D:/Study/Raspberry/QNX/ide-4.7-workspace/Bsp_Rasp/src/hardware/startup/lib/arm/a.le\libstartup.a(armv_setup_a9mp.o)
                0x0000932c                armv_setup_a9mp
 .text          0x00009438        0x8 D:/Study/Raspberry/QNX/ide-4.7-workspace/Bsp_Rasp/src/hardware/startup/lib/arm/a.le\libstartup.a(armv_setup_a9up.o)
                0x00009438                armv_setup_a9up
 .text          0x00009440       0x3c D:/Study/Raspberry/QNX/ide-4.7-workspace/Bsp_Rasp/src/hardware/startup/lib/arm/a.le\libstartup.a(armv_setup_sheeva_v6.o)
                0x00009440                armv_setup_sheeva_v6
 .text          0x0000947c       0x48 D:/Study/Raspberry/QNX/ide-4.7-workspace/Bsp_Rasp/src/hardware/startup/lib/arm/a.le\libstartup.a(armv_setup_sheeva_v7.o)
                0x0000947c                armv_setup_sheeva_v7
 .text          0x000094c4       0x9c D:/Study/Raspberry/QNX/ide-4.7-workspace/Bsp_Rasp/src/hardware/startup/lib/arm/a.le\libstartup.a(callout_cache_1020.o)
                0x000094c4                cache_1020_i
                0x00009500                cache_1020_d
 .text          0x00009560       0x8c D:/Study/Raspberry/QNX/ide-4.7-workspace/Bsp_Rasp/src/hardware/startup/lib/arm/a.le\libstartup.a(callout_cache_1136.o)
                0x00009560                cache_1136_i
                0x00009578                cache_1136_d
 .text          0x000095ec       0x20 D:/Study/Raspberry/QNX/ide-4.7-workspace/Bsp_Rasp/src/hardware/startup/lib/arm/a.le\libstartup.a(callout_cache_720.o)
                0x000095ec                cache_720
 .text          0x0000960c       0x9c D:/Study/Raspberry/QNX/ide-4.7-workspace/Bsp_Rasp/src/hardware/startup/lib/arm/a.le\libstartup.a(callout_cache_920.o)
                0x0000960c                cache_920_i
                0x00009648                cache_920_d
 .text          0x000096a8       0x9c D:/Study/Raspberry/QNX/ide-4.7-workspace/Bsp_Rasp/src/hardware/startup/lib/arm/a.le\libstartup.a(callout_cache_925.o)
                0x000096a8                cache_925_i
                0x000096e4                cache_925_d
 .text          0x00009744       0xd8 D:/Study/Raspberry/QNX/ide-4.7-workspace/Bsp_Rasp/src/hardware/startup/lib/arm/a.le\libstartup.a(callout_cache_926.o)
                0x00009790                cache_926_d
                0x00009744                cache_926_i
 .text          0x0000981c       0xc8 D:/Study/Raspberry/QNX/ide-4.7-workspace/Bsp_Rasp/src/hardware/startup/lib/arm/a.le\libstartup.a(callout_cache_a15.o)
                0x00009888                cache_a15_d
                0x0000981c                cache_a15_i
 .text          0x000098e4       0xa0 D:/Study/Raspberry/QNX/ide-4.7-workspace/Bsp_Rasp/src/hardware/startup/lib/arm/a.le\libstartup.a(callout_cache_a8.o)
                0x00009930                cache_a8_d
                0x000098e4                cache_a8_i
 .text          0x00009984       0x84 D:/Study/Raspberry/QNX/ide-4.7-workspace/Bsp_Rasp/src/hardware/startup/lib/arm/a.le\libstartup.a(callout_cache_mp11.o)
                0x00009984                cache_mp11_i
                0x000099b4                cache_mp11_d
 .text          0x00009a08       0x7c D:/Study/Raspberry/QNX/ide-4.7-workspace/Bsp_Rasp/src/hardware/startup/lib/arm/a.le\libstartup.a(callout_cache_sa.o)
                0x00009a08                cache_sa_i
                0x00009a20                cache_sa_d
 .text          0x00009a84       0xb4 D:/Study/Raspberry/QNX/ide-4.7-workspace/Bsp_Rasp/src/hardware/startup/lib/arm/a.le\libstartup.a(callout_cache_xsc3.o)
                0x00009a84                cache_xsc3_i
                0x00009ac8                cache_xsc3_d
 .text          0x00009b38       0xa4 D:/Study/Raspberry/QNX/ide-4.7-workspace/Bsp_Rasp/src/hardware/startup/lib/arm/a.le\libstartup.a(callout_cache_xscale.o)
                0x00009b78                cache_xscale_d
                0x00009b38                cache_xscale_i
 .text          0x00009bdc       0x64 D:/Study/Raspberry/QNX/ide-4.7-workspace/Bsp_Rasp/src/hardware/startup/lib/arm/a.le\libstartup.a(callout_page_a9mp.o)
                0x00009c30                page_flush_deferred_a9mp
                0x00009bdc                page_flush_a9mp
 .text          0x00009c40       0x64 D:/Study/Raspberry/QNX/ide-4.7-workspace/Bsp_Rasp/src/hardware/startup/lib/arm/a.le\libstartup.a(callout_page_a9up.o)
                0x00009c94                page_flush_deferred_a9up
                0x00009c40                page_flush_a9up
 .text          0x00009ca4       0x58 D:/Study/Raspberry/QNX/ide-4.7-workspace/Bsp_Rasp/src/hardware/startup/lib/arm/a.le\libstartup.a(callout_page_sheeva_v6.o)
                0x00009cec                page_flush_deferred_sheeva_v6
                0x00009ca4                page_flush_sheeva_v6
 .text          0x00009cfc       0x54 D:/Study/Raspberry/QNX/ide-4.7-workspace/Bsp_Rasp/src/hardware/startup/lib/arm/a.le\libstartup.a(callout_page_sheeva_v7.o)
                0x00009d40                page_flush_deferred_sheeva_v7
                0x00009cfc                page_flush_sheeva_v7
 .text          0x00009d50       0x30 D:/Study/Raspberry/QNX/ide-4.7-workspace/Bsp_Rasp/src/hardware/startup/lib/arm/a.le\libstartup.a(callout_power_sheeva_v6.o)
                0x00009d50                power_sheeva_v6
 .text          0x00009d80       0x30 D:/Study/Raspberry/QNX/ide-4.7-workspace/Bsp_Rasp/src/hardware/startup/lib/arm/a.le\libstartup.a(callout_power_sheeva_v7.o)
                0x00009d80                power_sheeva_v7
 .text          0x00009db0        0x0 D:/Study/Raspberry/QNX/ide-4.7-workspace/Bsp_Rasp/src/hardware/startup/lib/arm/a.le\libstartup.a(armv_cache_a9mp.o)
 .text          0x00009db0        0x0 D:/Study/Raspberry/QNX/ide-4.7-workspace/Bsp_Rasp/src/hardware/startup/lib/arm/a.le\libstartup.a(armv_cache_a9up.o)
 .text          0x00009db0        0x0 D:/Study/Raspberry/QNX/ide-4.7-workspace/Bsp_Rasp/src/hardware/startup/lib/arm/a.le\libstartup.a(armv_cache_sheeva_v6.o)
 .text          0x00009db0        0x0 D:/Study/Raspberry/QNX/ide-4.7-workspace/Bsp_Rasp/src/hardware/startup/lib/arm/a.le\libstartup.a(armv_cache_sheeva_v7.o)
 .text          0x00009db0       0xb4 D:/Study/Raspberry/QNX/ide-4.7-workspace/Bsp_Rasp/src/hardware/startup/lib/arm/a.le\libstartup.a(callout_cache_a9mp.o)
                0x00009e08                cache_a9mp_d
                0x00009db0                cache_a9mp_i
 .text          0x00009e64       0xb4 D:/Study/Raspberry/QNX/ide-4.7-workspace/Bsp_Rasp/src/hardware/startup/lib/arm/a.le\libstartup.a(callout_cache_a9up.o)
                0x00009e64                cache_a9up_i
                0x00009ebc                cache_a9up_d
 .text          0x00009f18       0xc8 D:/Study/Raspberry/QNX/ide-4.7-workspace/Bsp_Rasp/src/hardware/startup/lib/arm/a.le\libstartup.a(callout_cache_sheeva_v6.o)
                0x00009f5c                cache_sheeva_d_v6
                0x00009f18                cache_sheeva_i_v6
 .text          0x00009fe0       0xe0 D:/Study/Raspberry/QNX/ide-4.7-workspace/Bsp_Rasp/src/hardware/startup/lib/arm/a.le\libstartup.a(callout_cache_sheeva_v7.o)
                0x00009fe0                cache_sheeva_i_v7
                0x0000a038                cache_sheeva_d_v7
 .text          0x0000a0c0      0x84c C:/QNX650/target/qnx6/armle/usr/lib\libucl.a(n2b_d.o)
                0x0000a2e8                ucl_nrv2b_decompress_le16
                0x0000a5bc                ucl_nrv2b_decompress_le32
                0x0000a0c0                ucl_nrv2b_decompress_8
 .text          0x0000a90c      0x110 C:/QNX650/host/win32/x86/usr/lib/gcc/arm-unknown-nto-qnx6.5.0/4.4.2//libgcc.a(_udivsi3.o)
                0x0000a90c                __udivsi3
                0x0000a90c                __aeabi_uidiv
                0x0000aa04                __aeabi_uidivmod
 .text          0x0000aa1c        0xc C:/QNX650/host/win32/x86/usr/lib/gcc/arm-unknown-nto-qnx6.5.0/4.4.2//libgcc.a(_dvmd_nto.o)
                0x0000aa1c                __div0
 .text          0x0000aa28      0x50c C:/QNX650/host/win32/x86/usr/lib/gcc/arm-unknown-nto-qnx6.5.0/4.4.2//libgcc.a(_udivdi3.o)
                0x0000aa28                __udivdi3
 .text          0x0000af34      0x500 C:/QNX650/host/win32/x86/usr/lib/gcc/arm-unknown-nto-qnx6.5.0/4.4.2//libgcc.a(_umoddi3.o)
                0x0000af34                __umoddi3
 .text          0x0000b434       0xcc C:/QNX650/host/win32/x86/usr/lib/gcc/arm-unknown-nto-qnx6.5.0/4.4.2//libgcc.a(_umodsi3.o)
                0x0000b434                __umodsi3
 .text          0x0000b500        0x0 C:/QNX650/host/win32/x86/usr/lib/gcc/arm-unknown-nto-qnx6.5.0/4.4.2//libgcc.a(_clz.o)
 .text          0x0000b500      0x120 C:/QNX650/target/qnx6/armle/lib\libc.a(hwi_find_item.o)
                0x0000b500                hwi_find_item
 .text          0x0000b620       0x1c C:/QNX650/target/qnx6/armle/lib\libc.a(hwi_off2tag.o)
                0x0000b620                hwi_off2tag
 .text          0x0000b63c       0x1c C:/QNX650/target/qnx6/armle/lib\libc.a(hwi_tag2off.o)
                0x0000b63c                hwi_tag2off
 .text          0x0000b658       0x4c C:/QNX650/target/qnx6/armle/lib\libc.a(memcmp.o)
                0x0000b658                memcmp
 .text          0x0000b6a4       0x90 C:/QNX650/target/qnx6/armle/lib\libc.a(memset.o)
                0x0000b6a4                memset
 .text          0x0000b734       0x3c C:/QNX650/target/qnx6/armle/lib\libc.a(strchr.o)
                0x0000b734                strchr
 .text          0x0000b770       0x4c C:/QNX650/target/qnx6/armle/lib\libc.a(strcmp.o)
                0x0000b770                strcmp
 .text          0x0000b7bc       0x1c C:/QNX650/target/qnx6/armle/lib\libc.a(strcpy.o)
                0x0000b7bc                strcpy
 .text          0x0000b7d8        0x0 C:/QNX650/target/qnx6/armle/lib\libc.a(__cpu_flags.o)
 *(.gnu.warning)

.fini
 *(.fini)

.rodata         0x00000000      0xc80
 *(.rodata)
 .rodata        0x00000000       0x34 init_intrinfo.o
 .rodata        0x00000034       0x18 init_qtime_bcm2835.o
 .rodata        0x0000004c       0x28 main.o
                0x0000004c                callouts
                0x00000054                debug_devices
 .rodata        0x00000074        0x8 D:/Study/Raspberry/QNX/ide-4.7-workspace/Bsp_Rasp/src/hardware/startup/lib/arm/a.le\libstartup.a(add_interrupt.o)
 .rodata        0x0000007c        0x8 D:/Study/Raspberry/QNX/ide-4.7-workspace/Bsp_Rasp/src/hardware/startup/lib/arm/a.le\libstartup.a(init_system_private.o)
 .rodata        0x00000084       0x14 D:/Study/Raspberry/QNX/ide-4.7-workspace/Bsp_Rasp/src/hardware/startup/lib/arm/a.le\libstartup.a(kprintf.o)
 .rodata        0x00000098       0x14 D:/Study/Raspberry/QNX/ide-4.7-workspace/Bsp_Rasp/src/hardware/startup/lib/arm/a.le\libstartup.a(restore_ifs.o)
 .rodata        0x000000ac        0x8 D:/Study/Raspberry/QNX/ide-4.7-workspace/Bsp_Rasp/src/hardware/startup/lib/arm/a.le\libstartup.a(as_find.o)
 .rodata        0x000000b4       0x40 D:/Study/Raspberry/QNX/ide-4.7-workspace/Bsp_Rasp/src/hardware/startup/lib/arm/a.le\libstartup.a(armv_chip_1020.o)
                0x000000b4                armv_chip_1020
 .rodata        0x000000f4       0x40 D:/Study/Raspberry/QNX/ide-4.7-workspace/Bsp_Rasp/src/hardware/startup/lib/arm/a.le\libstartup.a(armv_chip_1022.o)
                0x000000f4                armv_chip_1022
 .rodata        0x00000134       0x40 D:/Study/Raspberry/QNX/ide-4.7-workspace/Bsp_Rasp/src/hardware/startup/lib/arm/a.le\libstartup.a(armv_chip_1136.o)
                0x00000134                armv_chip_1136
 .rodata        0x00000174       0x40 D:/Study/Raspberry/QNX/ide-4.7-workspace/Bsp_Rasp/src/hardware/startup/lib/arm/a.le\libstartup.a(armv_chip_1176.o)
                0x00000174                armv_chip_1176
 .rodata        0x000001b4       0x40 D:/Study/Raspberry/QNX/ide-4.7-workspace/Bsp_Rasp/src/hardware/startup/lib/arm/a.le\libstartup.a(armv_chip_1200.o)
                0x000001b4                armv_chip_ixp1200
 .rodata        0x000001f4       0x40 D:/Study/Raspberry/QNX/ide-4.7-workspace/Bsp_Rasp/src/hardware/startup/lib/arm/a.le\libstartup.a(armv_chip_23xx.o)
                0x000001f4                armv_chip_ixp23xx
 .rodata        0x00000234       0x40 D:/Study/Raspberry/QNX/ide-4.7-workspace/Bsp_Rasp/src/hardware/startup/lib/arm/a.le\libstartup.a(armv_chip_2400.o)
                0x00000234                armv_chip_ixp2400
 .rodata        0x00000274       0x40 D:/Study/Raspberry/QNX/ide-4.7-workspace/Bsp_Rasp/src/hardware/startup/lib/arm/a.le\libstartup.a(armv_chip_2800.o)
                0x00000274                armv_chip_ixp2800
 .rodata        0x000002b4       0x40 D:/Study/Raspberry/QNX/ide-4.7-workspace/Bsp_Rasp/src/hardware/startup/lib/arm/a.le\libstartup.a(armv_chip_425.o)
                0x000002b4                armv_chip_ixp425
 .rodata        0x000002f4       0x40 D:/Study/Raspberry/QNX/ide-4.7-workspace/Bsp_Rasp/src/hardware/startup/lib/arm/a.le\libstartup.a(armv_chip_465.o)
                0x000002f4                armv_chip_ixp465
 .rodata        0x00000334       0x40 D:/Study/Raspberry/QNX/ide-4.7-workspace/Bsp_Rasp/src/hardware/startup/lib/arm/a.le\libstartup.a(armv_chip_720.o)
                0x00000334                armv_chip_720
 .rodata        0x00000374       0x40 D:/Study/Raspberry/QNX/ide-4.7-workspace/Bsp_Rasp/src/hardware/startup/lib/arm/a.le\libstartup.a(armv_chip_80200.o)
                0x00000374                armv_chip_80200
 .rodata        0x000003b4       0x40 D:/Study/Raspberry/QNX/ide-4.7-workspace/Bsp_Rasp/src/hardware/startup/lib/arm/a.le\libstartup.a(armv_chip_920.o)
                0x000003b4                armv_chip_920
 .rodata        0x000003f4       0x40 D:/Study/Raspberry/QNX/ide-4.7-workspace/Bsp_Rasp/src/hardware/startup/lib/arm/a.le\libstartup.a(armv_chip_922.o)
                0x000003f4                armv_chip_922
 .rodata        0x00000434       0x40 D:/Study/Raspberry/QNX/ide-4.7-workspace/Bsp_Rasp/src/hardware/startup/lib/arm/a.le\libstartup.a(armv_chip_925.o)
                0x00000434                armv_chip_925
 .rodata        0x00000474       0x40 D:/Study/Raspberry/QNX/ide-4.7-workspace/Bsp_Rasp/src/hardware/startup/lib/arm/a.le\libstartup.a(armv_chip_926.o)
                0x00000474                armv_chip_926
 .rodata        0x000004b4       0x40 D:/Study/Raspberry/QNX/ide-4.7-workspace/Bsp_Rasp/src/hardware/startup/lib/arm/a.le\libstartup.a(armv_chip_a15.o)
                0x000004b4                armv_chip_a15
 .rodata        0x000004f4       0x40 D:/Study/Raspberry/QNX/ide-4.7-workspace/Bsp_Rasp/src/hardware/startup/lib/arm/a.le\libstartup.a(armv_chip_a8.o)
                0x000004f4                armv_chip_a8
 .rodata        0x00000534       0x40 D:/Study/Raspberry/QNX/ide-4.7-workspace/Bsp_Rasp/src/hardware/startup/lib/arm/a.le\libstartup.a(armv_chip_a9.o)
                0x00000534                armv_chip_a9
 .rodata        0x00000574       0x40 D:/Study/Raspberry/QNX/ide-4.7-workspace/Bsp_Rasp/src/hardware/startup/lib/arm/a.le\libstartup.a(armv_chip_mp11.o)
                0x00000574                armv_chip_mp11
 .rodata        0x000005b4       0x40 D:/Study/Raspberry/QNX/ide-4.7-workspace/Bsp_Rasp/src/hardware/startup/lib/arm/a.le\libstartup.a(armv_chip_pxa210b.o)
                0x000005b4                armv_chip_pxa210b
 .rodata        0x000005f4       0x40 D:/Study/Raspberry/QNX/ide-4.7-workspace/Bsp_Rasp/src/hardware/startup/lib/arm/a.le\libstartup.a(armv_chip_pxa210c.o)
                0x000005f4                armv_chip_pxa210c
 .rodata        0x00000634       0x40 D:/Study/Raspberry/QNX/ide-4.7-workspace/Bsp_Rasp/src/hardware/startup/lib/arm/a.le\libstartup.a(armv_chip_pxa250a.o)
                0x00000634                armv_chip_pxa250a
 .rodata        0x00000674       0x40 D:/Study/Raspberry/QNX/ide-4.7-workspace/Bsp_Rasp/src/hardware/startup/lib/arm/a.le\libstartup.a(armv_chip_pxa250b.o)
                0x00000674                armv_chip_pxa250b
 .rodata        0x000006b4       0x40 D:/Study/Raspberry/QNX/ide-4.7-workspace/Bsp_Rasp/src/hardware/startup/lib/arm/a.le\libstartup.a(armv_chip_pxa255.o)
                0x000006b4                armv_chip_pxa255
 .rodata        0x000006f4       0x40 D:/Study/Raspberry/QNX/ide-4.7-workspace/Bsp_Rasp/src/hardware/startup/lib/arm/a.le\libstartup.a(armv_chip_pxa270.o)
                0x000006f4                armv_chip_pxa270
 .rodata        0x00000734       0x40 D:/Study/Raspberry/QNX/ide-4.7-workspace/Bsp_Rasp/src/hardware/startup/lib/arm/a.le\libstartup.a(armv_chip_sa1100.o)
                0x00000734                armv_chip_sa1100
 .rodata        0x00000774       0x40 D:/Study/Raspberry/QNX/ide-4.7-workspace/Bsp_Rasp/src/hardware/startup/lib/arm/a.le\libstartup.a(armv_chip_sa1110.o)
                0x00000774                armv_chip_sa1110
 .rodata        0x000007b4       0x40 D:/Study/Raspberry/QNX/ide-4.7-workspace/Bsp_Rasp/src/hardware/startup/lib/arm/a.le\libstartup.a(armv_chip_sheeva.o)
                0x000007b4                armv_chip_sheeva
 .rodata        0x000007f4       0x18 D:/Study/Raspberry/QNX/ide-4.7-workspace/Bsp_Rasp/src/hardware/startup/lib/arm/a.le\libstartup.a(armv_pte_ixp2xxx.o)
                0x000007f4                armv_pte_ixp2xxx
 .rodata        0x0000080c       0x18 D:/Study/Raspberry/QNX/ide-4.7-workspace/Bsp_Rasp/src/hardware/startup/lib/arm/a.le\libstartup.a(armv_pte_v4wb.o)
                0x0000080c                armv_pte_v4wb
 .rodata        0x00000824       0x18 D:/Study/Raspberry/QNX/ide-4.7-workspace/Bsp_Rasp/src/hardware/startup/lib/arm/a.le\libstartup.a(armv_pte_v4wt.o)
                0x00000824                armv_pte_v4wt
 .rodata        0x0000083c       0x18 D:/Study/Raspberry/QNX/ide-4.7-workspace/Bsp_Rasp/src/hardware/startup/lib/arm/a.le\libstartup.a(armv_pte_v5wa.o)
                0x0000083c                armv_pte_v5wa
 .rodata        0x00000854       0x18 D:/Study/Raspberry/QNX/ide-4.7-workspace/Bsp_Rasp/src/hardware/startup/lib/arm/a.le\libstartup.a(armv_pte_v5wb.o)
                0x00000854                armv_pte_v5wb
 .rodata        0x0000086c       0x18 D:/Study/Raspberry/QNX/ide-4.7-workspace/Bsp_Rasp/src/hardware/startup/lib/arm/a.le\libstartup.a(armv_pte_v5wt.o)
                0x0000086c                armv_pte_v5wt
 .rodata        0x00000884       0x18 D:/Study/Raspberry/QNX/ide-4.7-workspace/Bsp_Rasp/src/hardware/startup/lib/arm/a.le\libstartup.a(armv_pte_v6mp.o)
                0x00000884                armv_pte_v6mp
 .rodata        0x0000089c       0x18 D:/Study/Raspberry/QNX/ide-4.7-workspace/Bsp_Rasp/src/hardware/startup/lib/arm/a.le\libstartup.a(armv_pte_v6wb.o)
                0x0000089c                armv_pte_v6wb
 .rodata        0x000008b4       0x18 D:/Study/Raspberry/QNX/ide-4.7-workspace/Bsp_Rasp/src/hardware/startup/lib/arm/a.le\libstartup.a(armv_pte_v6wt.o)
                0x000008b4                armv_pte_v6wt
 .rodata        0x000008cc       0x18 D:/Study/Raspberry/QNX/ide-4.7-workspace/Bsp_Rasp/src/hardware/startup/lib/arm/a.le\libstartup.a(armv_pte_v7mp.o)
                0x000008cc                armv_pte_v7mp
 .rodata        0x000008e4       0x18 D:/Study/Raspberry/QNX/ide-4.7-workspace/Bsp_Rasp/src/hardware/startup/lib/arm/a.le\libstartup.a(armv_pte_v7wa.o)
                0x000008e4                armv_pte_v7wa
 .rodata        0x000008fc       0x18 D:/Study/Raspberry/QNX/ide-4.7-workspace/Bsp_Rasp/src/hardware/startup/lib/arm/a.le\libstartup.a(armv_pte_v7wb.o)
                0x000008fc                armv_pte_v7wb
 .rodata        0x00000914       0x18 D:/Study/Raspberry/QNX/ide-4.7-workspace/Bsp_Rasp/src/hardware/startup/lib/arm/a.le\libstartup.a(armv_pte_v7wt.o)
                0x00000914                armv_pte_v7wt
 .rodata        0x0000092c       0x18 D:/Study/Raspberry/QNX/ide-4.7-workspace/Bsp_Rasp/src/hardware/startup/lib/arm/a.le\libstartup.a(armv_pte_xsc3.o)
                0x0000092c                armv_pte_xsc3
 .rodata        0x00000944       0x10 D:/Study/Raspberry/QNX/ide-4.7-workspace/Bsp_Rasp/src/hardware/startup/lib/arm/a.le\libstartup.a(armv_cache_1020.o)
                0x00000944                armv_cache_1020
 .rodata        0x00000954       0x10 D:/Study/Raspberry/QNX/ide-4.7-workspace/Bsp_Rasp/src/hardware/startup/lib/arm/a.le\libstartup.a(armv_cache_1136.o)
                0x00000954                armv_cache_1136
 .rodata        0x00000964       0x1c D:/Study/Raspberry/QNX/ide-4.7-workspace/Bsp_Rasp/src/hardware/startup/lib/arm/a.le\libstartup.a(armv_cache_720.o)
                0x00000964                armv_cache_720
 .rodata        0x00000980       0x10 D:/Study/Raspberry/QNX/ide-4.7-workspace/Bsp_Rasp/src/hardware/startup/lib/arm/a.le\libstartup.a(armv_cache_920.o)
                0x00000980                armv_cache_920
 .rodata        0x00000990       0x10 D:/Study/Raspberry/QNX/ide-4.7-workspace/Bsp_Rasp/src/hardware/startup/lib/arm/a.le\libstartup.a(armv_cache_925.o)
                0x00000990                armv_cache_925
 .rodata        0x000009a0       0x10 D:/Study/Raspberry/QNX/ide-4.7-workspace/Bsp_Rasp/src/hardware/startup/lib/arm/a.le\libstartup.a(armv_cache_926.o)
                0x000009a0                armv_cache_926
 .rodata        0x000009b0       0x10 D:/Study/Raspberry/QNX/ide-4.7-workspace/Bsp_Rasp/src/hardware/startup/lib/arm/a.le\libstartup.a(armv_cache_a15.o)
                0x000009b0                armv_cache_a15
 .rodata        0x000009c0       0x10 D:/Study/Raspberry/QNX/ide-4.7-workspace/Bsp_Rasp/src/hardware/startup/lib/arm/a.le\libstartup.a(armv_cache_a8.o)
                0x000009c0                armv_cache_a8
 .rodata        0x000009d0       0x10 D:/Study/Raspberry/QNX/ide-4.7-workspace/Bsp_Rasp/src/hardware/startup/lib/arm/a.le\libstartup.a(armv_cache_mp11.o)
                0x000009d0                armv_cache_mp11
 .rodata        0x000009e0       0x28 D:/Study/Raspberry/QNX/ide-4.7-workspace/Bsp_Rasp/src/hardware/startup/lib/arm/a.le\libstartup.a(armv_cache_sa1100.o)
                0x000009ec                sa1100_icache_config
                0x000009f8                armv_cache_sa1100
                0x000009e0                sa1100_dcache_config
 .rodata        0x00000a08       0x10 D:/Study/Raspberry/QNX/ide-4.7-workspace/Bsp_Rasp/src/hardware/startup/lib/arm/a.le\libstartup.a(armv_cache_xsc3.o)
                0x00000a08                armv_cache_xsc3
 .rodata        0x00000a18       0x10 D:/Study/Raspberry/QNX/ide-4.7-workspace/Bsp_Rasp/src/hardware/startup/lib/arm/a.le\libstartup.a(armv_cache_xscale.o)
                0x00000a18                armv_cache_xscale
 .rodata        0x00000a28       0x40 D:/Study/Raspberry/QNX/ide-4.7-workspace/Bsp_Rasp/src/hardware/startup/lib/arm/a.le\libstartup.a(armv_chip_a9mp.o)
                0x00000a28                armv_chip_a9mp
 .rodata        0x00000a68       0x40 D:/Study/Raspberry/QNX/ide-4.7-workspace/Bsp_Rasp/src/hardware/startup/lib/arm/a.le\libstartup.a(armv_chip_a9up.o)
                0x00000a68                armv_chip_a9up
 .rodata        0x00000aa8       0x40 D:/Study/Raspberry/QNX/ide-4.7-workspace/Bsp_Rasp/src/hardware/startup/lib/arm/a.le\libstartup.a(armv_chip_sheeva_v6.o)
                0x00000aa8                armv_chip_sheeva_v6
 .rodata        0x00000ae8       0x40 D:/Study/Raspberry/QNX/ide-4.7-workspace/Bsp_Rasp/src/hardware/startup/lib/arm/a.le\libstartup.a(armv_chip_sheeva_v7.o)
                0x00000ae8                armv_chip_sheeva_v7
 .rodata        0x00000b28       0x18 D:/Study/Raspberry/QNX/ide-4.7-workspace/Bsp_Rasp/src/hardware/startup/lib/arm/a.le\libstartup.a(armv_pte_v6wa.o)
                0x00000b28                armv_pte_v6wa
 .rodata        0x00000b40       0x10 D:/Study/Raspberry/QNX/ide-4.7-workspace/Bsp_Rasp/src/hardware/startup/lib/arm/a.le\libstartup.a(armv_cache_a9mp.o)
                0x00000b40                armv_cache_a9mp
 .rodata        0x00000b50       0x10 D:/Study/Raspberry/QNX/ide-4.7-workspace/Bsp_Rasp/src/hardware/startup/lib/arm/a.le\libstartup.a(armv_cache_a9up.o)
                0x00000b50                armv_cache_a9up
 .rodata        0x00000b60       0x10 D:/Study/Raspberry/QNX/ide-4.7-workspace/Bsp_Rasp/src/hardware/startup/lib/arm/a.le\libstartup.a(armv_cache_sheeva_v6.o)
                0x00000b60                armv_cache_sheeva_v6
 .rodata        0x00000b70       0x10 D:/Study/Raspberry/QNX/ide-4.7-workspace/Bsp_Rasp/src/hardware/startup/lib/arm/a.le\libstartup.a(armv_cache_sheeva_v7.o)
                0x00000b70                armv_cache_sheeva_v7
 .rodata        0x00000b80      0x100 C:/QNX650/host/win32/x86/usr/lib/gcc/arm-unknown-nto-qnx6.5.0/4.4.2//libgcc.a(_clz.o)
                0x00000b80                __clz_tab

.rodata.str1.4  0x00000000     0x1398
 .rodata.str1.4
                0x00000000       0x14 init_pio.o
 .rodata.str1.4
                0x00000014       0x5c main.o
 .rodata.str1.4
                0x00000070       0x10 D:/Study/Raspberry/QNX/ide-4.7-workspace/Bsp_Rasp/src/hardware/startup/lib/arm/a.le\libstartup.a(_main.o)
 .rodata.str1.4
                0x00000080       0x30 D:/Study/Raspberry/QNX/ide-4.7-workspace/Bsp_Rasp/src/hardware/startup/lib/arm/a.le\libstartup.a(callouts.o)
 .rodata.str1.4
                0x000000b0        0x4 D:/Study/Raspberry/QNX/ide-4.7-workspace/Bsp_Rasp/src/hardware/startup/lib/arm/a.le\libstartup.a(common_options.o)
 .rodata.str1.4
                0x000000b4        0x4 D:/Study/Raspberry/QNX/ide-4.7-workspace/Bsp_Rasp/src/hardware/startup/lib/arm/a.le\libstartup.a(debug.o)
 .rodata.str1.4
                0x000000b8       0x30 D:/Study/Raspberry/QNX/ide-4.7-workspace/Bsp_Rasp/src/hardware/startup/lib/arm/a.le\libstartup.a(hwi_add_nanospin.o)
 .rodata.str1.4
                0x000000e8        0x4 D:/Study/Raspberry/QNX/ide-4.7-workspace/Bsp_Rasp/src/hardware/startup/lib/arm/a.le\libstartup.a(hwi_alloc.o)
 .rodata.str1.4
                0x000000ec       0x30 D:/Study/Raspberry/QNX/ide-4.7-workspace/Bsp_Rasp/src/hardware/startup/lib/arm/a.le\libstartup.a(init_cpuinfo.o)
 .rodata.str1.4
                0x0000011c       0x54 D:/Study/Raspberry/QNX/ide-4.7-workspace/Bsp_Rasp/src/hardware/startup/lib/arm/a.le\libstartup.a(init_mmu.o)
 .rodata.str1.4
                0x00000170      0x164 D:/Study/Raspberry/QNX/ide-4.7-workspace/Bsp_Rasp/src/hardware/startup/lib/arm/a.le\libstartup.a(init_system_private.o)
 .rodata.str1.4
                0x000002d4       0x64 D:/Study/Raspberry/QNX/ide-4.7-workspace/Bsp_Rasp/src/hardware/startup/lib/arm/a.le\libstartup.a(load_ifs.o)
 .rodata.str1.4
                0x00000338      0x5b4 D:/Study/Raspberry/QNX/ide-4.7-workspace/Bsp_Rasp/src/hardware/startup/lib/arm/a.le\libstartup.a(print_sysp.o)
 .rodata.str1.4
                0x000008ec       0xac D:/Study/Raspberry/QNX/ide-4.7-workspace/Bsp_Rasp/src/hardware/startup/lib/arm/a.le\libstartup.a(ram.o)
 .rodata.str1.4
                0x00000998      0x4b4 D:/Study/Raspberry/QNX/ide-4.7-workspace/Bsp_Rasp/src/hardware/startup/lib/arm/a.le\libstartup.a(restore_ifs.o)
 .rodata.str1.4
                0x00000e4c       0x68 D:/Study/Raspberry/QNX/ide-4.7-workspace/Bsp_Rasp/src/hardware/startup/lib/arm/a.le\libstartup.a(startnext.o)
 .rodata.str1.4
                0x00000eb4       0x3c D:/Study/Raspberry/QNX/ide-4.7-workspace/Bsp_Rasp/src/hardware/startup/lib/arm/a.le\libstartup.a(syspage_memory.o)
 .rodata.str1.4
                0x00000ef0       0x34 D:/Study/Raspberry/QNX/ide-4.7-workspace/Bsp_Rasp/src/hardware/startup/lib/arm/a.le\libstartup.a(uncompress.o)
 .rodata.str1.4
                0x00000f24        0x8 D:/Study/Raspberry/QNX/ide-4.7-workspace/Bsp_Rasp/src/hardware/startup/lib/arm/a.le\libstartup.a(uncompress_ucl.o)
 .rodata.str1.4
                0x00000f2c       0xec D:/Study/Raspberry/QNX/ide-4.7-workspace/Bsp_Rasp/src/hardware/startup/lib/arm/a.le\libstartup.a(arm_cache.o)
 .rodata.str1.4
                0x00001018       0x34 D:/Study/Raspberry/QNX/ide-4.7-workspace/Bsp_Rasp/src/hardware/startup/lib/arm/a.le\libstartup.a(arm_cpuspeed.o)
 .rodata.str1.4
                0x0000104c       0x60 D:/Study/Raspberry/QNX/ide-4.7-workspace/Bsp_Rasp/src/hardware/startup/lib/arm/a.le\libstartup.a(arm_pte.o)
 .rodata.str1.4
                0x000010ac        0x4 D:/Study/Raspberry/QNX/ide-4.7-workspace/Bsp_Rasp/src/hardware/startup/lib/arm/a.le\libstartup.a(as_add64.o)
 .rodata.str1.4
                0x000010b0        0x8 D:/Study/Raspberry/QNX/ide-4.7-workspace/Bsp_Rasp/src/hardware/startup/lib/arm/a.le\libstartup.a(as_default.o)
 .rodata.str1.4
                0x000010b8       0x18 D:/Study/Raspberry/QNX/ide-4.7-workspace/Bsp_Rasp/src/hardware/startup/lib/arm/a.le\libstartup.a(as_find.o)
 .rodata.str1.4
                0x000010d0       0x1c D:/Study/Raspberry/QNX/ide-4.7-workspace/Bsp_Rasp/src/hardware/startup/lib/arm/a.le\libstartup.a(cpu_startnext.o)
 .rodata.str1.4
                0x000010ec       0x34 D:/Study/Raspberry/QNX/ide-4.7-workspace/Bsp_Rasp/src/hardware/startup/lib/arm/a.le\libstartup.a(cpu_syspage_memory.o)
 .rodata.str1.4
                0x00001120        0x8 D:/Study/Raspberry/QNX/ide-4.7-workspace/Bsp_Rasp/src/hardware/startup/lib/arm/a.le\libstartup.a(elf.o)
 .rodata.str1.4
                0x00001128       0x70 D:/Study/Raspberry/QNX/ide-4.7-workspace/Bsp_Rasp/src/hardware/startup/lib/arm/a.le\libstartup.a(elf_map.o)
 .rodata.str1.4
                0x00001198       0x18 D:/Study/Raspberry/QNX/ide-4.7-workspace/Bsp_Rasp/src/hardware/startup/lib/arm/a.le\libstartup.a(hwi_add_device.o)
 .rodata.str1.4
                0x000011b0       0x18 D:/Study/Raspberry/QNX/ide-4.7-workspace/Bsp_Rasp/src/hardware/startup/lib/arm/a.le\libstartup.a(hwi_default.o)
 .rodata.str1.4
                0x000011c8        0x8 D:/Study/Raspberry/QNX/ide-4.7-workspace/Bsp_Rasp/src/hardware/startup/lib/arm/a.le\libstartup.a(armv_chip_1020.o)
 .rodata.str1.4
                0x000011d0        0x8 D:/Study/Raspberry/QNX/ide-4.7-workspace/Bsp_Rasp/src/hardware/startup/lib/arm/a.le\libstartup.a(armv_chip_1022.o)
 .rodata.str1.4
                0x000011d8        0x8 D:/Study/Raspberry/QNX/ide-4.7-workspace/Bsp_Rasp/src/hardware/startup/lib/arm/a.le\libstartup.a(armv_chip_1136.o)
 .rodata.str1.4
                0x000011e0        0x8 D:/Study/Raspberry/QNX/ide-4.7-workspace/Bsp_Rasp/src/hardware/startup/lib/arm/a.le\libstartup.a(armv_chip_1176.o)
 .rodata.str1.4
                0x000011e8        0x8 D:/Study/Raspberry/QNX/ide-4.7-workspace/Bsp_Rasp/src/hardware/startup/lib/arm/a.le\libstartup.a(armv_chip_1200.o)
 .rodata.str1.4
                0x000011f0        0x8 D:/Study/Raspberry/QNX/ide-4.7-workspace/Bsp_Rasp/src/hardware/startup/lib/arm/a.le\libstartup.a(armv_chip_23xx.o)
 .rodata.str1.4
                0x000011f8        0x8 D:/Study/Raspberry/QNX/ide-4.7-workspace/Bsp_Rasp/src/hardware/startup/lib/arm/a.le\libstartup.a(armv_chip_2400.o)
 .rodata.str1.4
                0x00001200        0x8 D:/Study/Raspberry/QNX/ide-4.7-workspace/Bsp_Rasp/src/hardware/startup/lib/arm/a.le\libstartup.a(armv_chip_2800.o)
 .rodata.str1.4
                0x00001208        0x8 D:/Study/Raspberry/QNX/ide-4.7-workspace/Bsp_Rasp/src/hardware/startup/lib/arm/a.le\libstartup.a(armv_chip_425.o)
 .rodata.str1.4
                0x00001210        0x8 D:/Study/Raspberry/QNX/ide-4.7-workspace/Bsp_Rasp/src/hardware/startup/lib/arm/a.le\libstartup.a(armv_chip_465.o)
 .rodata.str1.4
                0x00001218        0x8 D:/Study/Raspberry/QNX/ide-4.7-workspace/Bsp_Rasp/src/hardware/startup/lib/arm/a.le\libstartup.a(armv_chip_720.o)
 .rodata.str1.4
                0x00001220        0x8 D:/Study/Raspberry/QNX/ide-4.7-workspace/Bsp_Rasp/src/hardware/startup/lib/arm/a.le\libstartup.a(armv_chip_80200.o)
 .rodata.str1.4
                0x00001228        0x8 D:/Study/Raspberry/QNX/ide-4.7-workspace/Bsp_Rasp/src/hardware/startup/lib/arm/a.le\libstartup.a(armv_chip_920.o)
 .rodata.str1.4
                0x00001230        0x8 D:/Study/Raspberry/QNX/ide-4.7-workspace/Bsp_Rasp/src/hardware/startup/lib/arm/a.le\libstartup.a(armv_chip_922.o)
 .rodata.str1.4
                0x00001238        0x8 D:/Study/Raspberry/QNX/ide-4.7-workspace/Bsp_Rasp/src/hardware/startup/lib/arm/a.le\libstartup.a(armv_chip_925.o)
 .rodata.str1.4
                0x00001240        0x8 D:/Study/Raspberry/QNX/ide-4.7-workspace/Bsp_Rasp/src/hardware/startup/lib/arm/a.le\libstartup.a(armv_chip_926.o)
 .rodata.str1.4
                0x00001248        0xc D:/Study/Raspberry/QNX/ide-4.7-workspace/Bsp_Rasp/src/hardware/startup/lib/arm/a.le\libstartup.a(armv_chip_a15.o)
 .rodata.str1.4
                0x00001254        0xc D:/Study/Raspberry/QNX/ide-4.7-workspace/Bsp_Rasp/src/hardware/startup/lib/arm/a.le\libstartup.a(armv_chip_a8.o)
 .rodata.str1.4
                0x00001260       0x10 D:/Study/Raspberry/QNX/ide-4.7-workspace/Bsp_Rasp/src/hardware/startup/lib/arm/a.le\libstartup.a(armv_chip_mp11.o)
 .rodata.str1.4
                0x00001270        0x8 D:/Study/Raspberry/QNX/ide-4.7-workspace/Bsp_Rasp/src/hardware/startup/lib/arm/a.le\libstartup.a(armv_chip_pxa210b.o)
 .rodata.str1.4
                0x00001278        0x8 D:/Study/Raspberry/QNX/ide-4.7-workspace/Bsp_Rasp/src/hardware/startup/lib/arm/a.le\libstartup.a(armv_chip_pxa210c.o)
 .rodata.str1.4
                0x00001280        0x8 D:/Study/Raspberry/QNX/ide-4.7-workspace/Bsp_Rasp/src/hardware/startup/lib/arm/a.le\libstartup.a(armv_chip_pxa250a.o)
 .rodata.str1.4
                0x00001288        0x8 D:/Study/Raspberry/QNX/ide-4.7-workspace/Bsp_Rasp/src/hardware/startup/lib/arm/a.le\libstartup.a(armv_chip_pxa250b.o)
 .rodata.str1.4
                0x00001290        0x8 D:/Study/Raspberry/QNX/ide-4.7-workspace/Bsp_Rasp/src/hardware/startup/lib/arm/a.le\libstartup.a(armv_chip_pxa255.o)
 .rodata.str1.4
                0x00001298        0x8 D:/Study/Raspberry/QNX/ide-4.7-workspace/Bsp_Rasp/src/hardware/startup/lib/arm/a.le\libstartup.a(armv_chip_pxa270.o)
 .rodata.str1.4
                0x000012a0        0x8 D:/Study/Raspberry/QNX/ide-4.7-workspace/Bsp_Rasp/src/hardware/startup/lib/arm/a.le\libstartup.a(armv_chip_sa1100.o)
 .rodata.str1.4
                0x000012a8        0x8 D:/Study/Raspberry/QNX/ide-4.7-workspace/Bsp_Rasp/src/hardware/startup/lib/arm/a.le\libstartup.a(armv_chip_sa1110.o)
 .rodata.str1.4
                0x000012b0       0x18 D:/Study/Raspberry/QNX/ide-4.7-workspace/Bsp_Rasp/src/hardware/startup/lib/arm/a.le\libstartup.a(armv_detect_sheeva.o)
 .rodata.str1.4
                0x000012c8       0x1c D:/Study/Raspberry/QNX/ide-4.7-workspace/Bsp_Rasp/src/hardware/startup/lib/arm/a.le\libstartup.a(armv_setup_mp11.o)
 .rodata.str1.4
                0x000012e4       0x10 D:/Study/Raspberry/QNX/ide-4.7-workspace/Bsp_Rasp/src/hardware/startup/lib/arm/a.le\libstartup.a(armv_setup_v6.o)
 .rodata.str1.4
                0x000012f4       0x3c D:/Study/Raspberry/QNX/ide-4.7-workspace/Bsp_Rasp/src/hardware/startup/lib/arm/a.le\libstartup.a(armv_setup_v7.o)
 .rodata.str1.4
                0x00001330       0x14 D:/Study/Raspberry/QNX/ide-4.7-workspace/Bsp_Rasp/src/hardware/startup/lib/arm/a.le\libstartup.a(arm_gic.o)
 .rodata.str1.4
                0x00001344       0x14 D:/Study/Raspberry/QNX/ide-4.7-workspace/Bsp_Rasp/src/hardware/startup/lib/arm/a.le\libstartup.a(armv_chip_a9mp.o)
 .rodata.str1.4
                0x00001358        0xc D:/Study/Raspberry/QNX/ide-4.7-workspace/Bsp_Rasp/src/hardware/startup/lib/arm/a.le\libstartup.a(armv_chip_a9up.o)
 .rodata.str1.4
                0x00001364        0xc D:/Study/Raspberry/QNX/ide-4.7-workspace/Bsp_Rasp/src/hardware/startup/lib/arm/a.le\libstartup.a(armv_chip_sheeva_v6.o)
 .rodata.str1.4
                0x00001370        0xc D:/Study/Raspberry/QNX/ide-4.7-workspace/Bsp_Rasp/src/hardware/startup/lib/arm/a.le\libstartup.a(armv_chip_sheeva_v7.o)
 .rodata.str1.4
                0x0000137c       0x1c D:/Study/Raspberry/QNX/ide-4.7-workspace/Bsp_Rasp/src/hardware/startup/lib/arm/a.le\libstartup.a(armv_setup_a9mp.o)

.rodata1
 *(.rodata1)

.ARM.extab
 *(.ARM.extab)

.ARM.exidx
 *(.ARM.exidx)

.eh_frame_hdr
 *(.eh_frame_hdr)

.eh_frame
 *(.eh_frame)

.gcc_except_table
 *(.gcc_except_table .gcc_except_table.*)

.eh_frame
 *(.eh_frame)

.gcc_except_table
 *(.gcc_except_table .gcc_except_table.*)

.tdata
 *(.tdata)

.tbss
 *(.tbss)

.preinit_array
 *(.preinit_array)

.init_array
 *(SORT(.init_array.*))
 *(.init_array)

.fini_array
 *(.fini_array)
 *(SORT(.fini_array.*))

.jcr
 *(.jcr)

.dynamic
 *(.dynamic)

.got
 *(.got.plt)
 *(.got)

.data           0x00000000      0xda8
 *(.data)
 .data          0x00000000        0x0 init_asinfo.o
 .data          0x00000000       0x28 init_hwinfo.o
 .data          0x00000028        0x4 init_intrinfo.o
 .data          0x0000002c        0x0 init_pio.o
 .data          0x0000002c        0x0 init_qtime_bcm2835.o
 .data          0x0000002c        0x0 init_raminfo.o
 .data          0x0000002c        0x0 main.o
 .data          0x0000002c        0x0 rtc_time.o
 .data          0x0000002c       0x1c D:/Study/Raspberry/QNX/ide-4.7-workspace/Bsp_Rasp/src/hardware/startup/lib/arm/a.le\libstartup.a(_main.o)
                0x00000040                system_dcache_idx
                0x00000038                max_cpus
                0x00000044                mdriver_check
                0x0000002c                mdriver_hook
                0x0000003c                system_icache_idx
                0x00000034                paddr_bits
                0x00000030                smp_hook_rtn
 .data          0x00000048        0x0 D:/Study/Raspberry/QNX/ide-4.7-workspace/Bsp_Rasp/src/hardware/startup/lib/arm/a.le\libstartup.a(add_interrupt.o)
 .data          0x00000048        0x0 D:/Study/Raspberry/QNX/ide-4.7-workspace/Bsp_Rasp/src/hardware/startup/lib/arm/a.le\libstartup.a(alloc_qtime.o)
 .data          0x00000048        0x0 D:/Study/Raspberry/QNX/ide-4.7-workspace/Bsp_Rasp/src/hardware/startup/lib/arm/a.le\libstartup.a(board_init.o)
 .data          0x00000048        0x0 D:/Study/Raspberry/QNX/ide-4.7-workspace/Bsp_Rasp/src/hardware/startup/lib/arm/a.le\libstartup.a(callout_debug_bcm2835.o)
 .data          0x00000048        0x0 D:/Study/Raspberry/QNX/ide-4.7-workspace/Bsp_Rasp/src/hardware/startup/lib/arm/a.le\libstartup.a(callout_interrupt_bcm2835.o)
 .data          0x00000048        0x0 D:/Study/Raspberry/QNX/ide-4.7-workspace/Bsp_Rasp/src/hardware/startup/lib/arm/a.le\libstartup.a(callout_reboot_at91sam9xx.o)
 .data          0x00000048        0x0 D:/Study/Raspberry/QNX/ide-4.7-workspace/Bsp_Rasp/src/hardware/startup/lib/arm/a.le\libstartup.a(callout_timer_bcm2835.o)
 .data          0x00000048        0x4 D:/Study/Raspberry/QNX/ide-4.7-workspace/Bsp_Rasp/src/hardware/startup/lib/arm/a.le\libstartup.a(callouts.o)
                0x00000048                callout_output_rtn
 .data          0x0000004c        0x0 D:/Study/Raspberry/QNX/ide-4.7-workspace/Bsp_Rasp/src/hardware/startup/lib/arm/a.le\libstartup.a(common_options.o)
 .data          0x0000004c        0x0 D:/Study/Raspberry/QNX/ide-4.7-workspace/Bsp_Rasp/src/hardware/startup/lib/arm/a.le\libstartup.a(cpu_common_options.o)
 .data          0x0000004c        0x0 D:/Study/Raspberry/QNX/ide-4.7-workspace/Bsp_Rasp/src/hardware/startup/lib/arm/a.le\libstartup.a(cpu_startup.o)
 .data          0x0000004c      0xc08 D:/Study/Raspberry/QNX/ide-4.7-workspace/Bsp_Rasp/src/hardware/startup/lib/arm/a.le\libstartup.a(cstart.o)
                0x00000c54                stack
                0x0000004c                boot_args
 .data          0x00000c54        0x0 D:/Study/Raspberry/QNX/ide-4.7-workspace/Bsp_Rasp/src/hardware/startup/lib/arm/a.le\libstartup.a(debug.o)
 .data          0x00000c54        0x0 D:/Study/Raspberry/QNX/ide-4.7-workspace/Bsp_Rasp/src/hardware/startup/lib/arm/a.le\libstartup.a(getopt.o)
 .data          0x00000c54        0x0 D:/Study/Raspberry/QNX/ide-4.7-workspace/Bsp_Rasp/src/hardware/startup/lib/arm/a.le\libstartup.a(getsize.o)
 .data          0x00000c54        0x0 D:/Study/Raspberry/QNX/ide-4.7-workspace/Bsp_Rasp/src/hardware/startup/lib/arm/a.le\libstartup.a(hw_serbcm2835debug.o)
 .data          0x00000c54        0x0 D:/Study/Raspberry/QNX/ide-4.7-workspace/Bsp_Rasp/src/hardware/startup/lib/arm/a.le\libstartup.a(hwi_add_nanospin.o)
 .data          0x00000c54        0x0 D:/Study/Raspberry/QNX/ide-4.7-workspace/Bsp_Rasp/src/hardware/startup/lib/arm/a.le\libstartup.a(hwi_alloc.o)
 .data          0x00000c54        0x0 D:/Study/Raspberry/QNX/ide-4.7-workspace/Bsp_Rasp/src/hardware/startup/lib/arm/a.le\libstartup.a(init_cacheattr.o)
 .data          0x00000c54        0x0 D:/Study/Raspberry/QNX/ide-4.7-workspace/Bsp_Rasp/src/hardware/startup/lib/arm/a.le\libstartup.a(init_cpuinfo.o)
 .data          0x00000c54        0x0 D:/Study/Raspberry/QNX/ide-4.7-workspace/Bsp_Rasp/src/hardware/startup/lib/arm/a.le\libstartup.a(init_mmu.o)
 .data          0x00000c54        0x0 D:/Study/Raspberry/QNX/ide-4.7-workspace/Bsp_Rasp/src/hardware/startup/lib/arm/a.le\libstartup.a(init_system_private.o)
 .data          0x00000c54        0x4 D:/Study/Raspberry/QNX/ide-4.7-workspace/Bsp_Rasp/src/hardware/startup/lib/arm/a.le\libstartup.a(jtag.o)
 .data          0x00000c58        0x4 D:/Study/Raspberry/QNX/ide-4.7-workspace/Bsp_Rasp/src/hardware/startup/lib/arm/a.le\libstartup.a(kprintf.o)
 .data          0x00000c5c        0x0 D:/Study/Raspberry/QNX/ide-4.7-workspace/Bsp_Rasp/src/hardware/startup/lib/arm/a.le\libstartup.a(load_ifs.o)
 .data          0x00000c5c        0x0 D:/Study/Raspberry/QNX/ide-4.7-workspace/Bsp_Rasp/src/hardware/startup/lib/arm/a.le\libstartup.a(map_callout_io.o)
 .data          0x00000c5c        0x0 D:/Study/Raspberry/QNX/ide-4.7-workspace/Bsp_Rasp/src/hardware/startup/lib/arm/a.le\libstartup.a(map_startup_io.o)
 .data          0x00000c5c        0x0 D:/Study/Raspberry/QNX/ide-4.7-workspace/Bsp_Rasp/src/hardware/startup/lib/arm/a.le\libstartup.a(map_startup_mem.o)
 .data          0x00000c5c        0x0 D:/Study/Raspberry/QNX/ide-4.7-workspace/Bsp_Rasp/src/hardware/startup/lib/arm/a.le\libstartup.a(memfuncs.o)
 .data          0x00000c5c        0x0 D:/Study/Raspberry/QNX/ide-4.7-workspace/Bsp_Rasp/src/hardware/startup/lib/arm/a.le\libstartup.a(memmove.o)
 .data          0x00000c5c       0xc0 D:/Study/Raspberry/QNX/ide-4.7-workspace/Bsp_Rasp/src/hardware/startup/lib/arm/a.le\libstartup.a(print_sysp.o)
 .data          0x00000d1c        0x4 D:/Study/Raspberry/QNX/ide-4.7-workspace/Bsp_Rasp/src/hardware/startup/lib/arm/a.le\libstartup.a(ram.o)
 .data          0x00000d20        0x4 D:/Study/Raspberry/QNX/ide-4.7-workspace/Bsp_Rasp/src/hardware/startup/lib/arm/a.le\libstartup.a(restore_ifs.o)
                0x00000d20                mdriver_cksum_max
 .data          0x00000d24        0x0 D:/Study/Raspberry/QNX/ide-4.7-workspace/Bsp_Rasp/src/hardware/startup/lib/arm/a.le\libstartup.a(rtc_time.o)
 .data          0x00000d24        0x0 D:/Study/Raspberry/QNX/ide-4.7-workspace/Bsp_Rasp/src/hardware/startup/lib/arm/a.le\libstartup.a(startnext.o)
 .data          0x00000d24        0x0 D:/Study/Raspberry/QNX/ide-4.7-workspace/Bsp_Rasp/src/hardware/startup/lib/arm/a.le\libstartup.a(startup_info.o)
 .data          0x00000d24        0x0 D:/Study/Raspberry/QNX/ide-4.7-workspace/Bsp_Rasp/src/hardware/startup/lib/arm/a.le\libstartup.a(strings.o)
 .data          0x00000d24        0x0 D:/Study/Raspberry/QNX/ide-4.7-workspace/Bsp_Rasp/src/hardware/startup/lib/arm/a.le\libstartup.a(strtoul.o)
 .data          0x00000d24        0x0 D:/Study/Raspberry/QNX/ide-4.7-workspace/Bsp_Rasp/src/hardware/startup/lib/arm/a.le\libstartup.a(syspage_memory.o)
 .data          0x00000d24        0x0 D:/Study/Raspberry/QNX/ide-4.7-workspace/Bsp_Rasp/src/hardware/startup/lib/arm/a.le\libstartup.a(tweak_cmdline.o)
 .data          0x00000d24        0x0 D:/Study/Raspberry/QNX/ide-4.7-workspace/Bsp_Rasp/src/hardware/startup/lib/arm/a.le\libstartup.a(uncompress.o)
 .data          0x00000d24        0x0 D:/Study/Raspberry/QNX/ide-4.7-workspace/Bsp_Rasp/src/hardware/startup/lib/arm/a.le\libstartup.a(uncompress_ucl.o)
 .data          0x00000d24        0x0 D:/Study/Raspberry/QNX/ide-4.7-workspace/Bsp_Rasp/src/hardware/startup/lib/arm/a.le\libstartup.a(arm_cache.o)
 .data          0x00000d24        0x0 D:/Study/Raspberry/QNX/ide-4.7-workspace/Bsp_Rasp/src/hardware/startup/lib/arm/a.le\libstartup.a(arm_cpuspeed.o)
 .data          0x00000d24        0x4 D:/Study/Raspberry/QNX/ide-4.7-workspace/Bsp_Rasp/src/hardware/startup/lib/arm/a.le\libstartup.a(arm_map.o)
 .data          0x00000d28        0x0 D:/Study/Raspberry/QNX/ide-4.7-workspace/Bsp_Rasp/src/hardware/startup/lib/arm/a.le\libstartup.a(arm_pte.o)
 .data          0x00000d28        0x0 D:/Study/Raspberry/QNX/ide-4.7-workspace/Bsp_Rasp/src/hardware/startup/lib/arm/a.le\libstartup.a(armv_chip_detect.o)
 .data          0x00000d28       0x78 D:/Study/Raspberry/QNX/ide-4.7-workspace/Bsp_Rasp/src/hardware/startup/lib/arm/a.le\libstartup.a(armv_list.o)
                0x00000d28                armv_list
 .data          0x00000da0        0x0 D:/Study/Raspberry/QNX/ide-4.7-workspace/Bsp_Rasp/src/hardware/startup/lib/arm/a.le\libstartup.a(as_add.o)
 .data          0x00000da0        0x0 D:/Study/Raspberry/QNX/ide-4.7-workspace/Bsp_Rasp/src/hardware/startup/lib/arm/a.le\libstartup.a(as_add64.o)
 .data          0x00000da0        0x0 D:/Study/Raspberry/QNX/ide-4.7-workspace/Bsp_Rasp/src/hardware/startup/lib/arm/a.le\libstartup.a(as_add_containing.o)
 .data          0x00000da0        0x0 D:/Study/Raspberry/QNX/ide-4.7-workspace/Bsp_Rasp/src/hardware/startup/lib/arm/a.le\libstartup.a(as_default.o)
 .data          0x00000da0        0x0 D:/Study/Raspberry/QNX/ide-4.7-workspace/Bsp_Rasp/src/hardware/startup/lib/arm/a.le\libstartup.a(as_find.o)
 .data          0x00000da0        0x0 D:/Study/Raspberry/QNX/ide-4.7-workspace/Bsp_Rasp/src/hardware/startup/lib/arm/a.le\libstartup.a(as_find_containing.o)
 .data          0x00000da0        0x0 D:/Study/Raspberry/QNX/ide-4.7-workspace/Bsp_Rasp/src/hardware/startup/lib/arm/a.le\libstartup.a(as_off2info.o)
 .data          0x00000da0        0x0 D:/Study/Raspberry/QNX/ide-4.7-workspace/Bsp_Rasp/src/hardware/startup/lib/arm/a.le\libstartup.a(board_cpu_startup.o)
 .data          0x00000da0        0x0 D:/Study/Raspberry/QNX/ide-4.7-workspace/Bsp_Rasp/src/hardware/startup/lib/arm/a.le\libstartup.a(cpu_startnext.o)
 .data          0x00000da0        0x0 D:/Study/Raspberry/QNX/ide-4.7-workspace/Bsp_Rasp/src/hardware/startup/lib/arm/a.le\libstartup.a(cpu_syspage_memory.o)
 .data          0x00000da0        0x0 D:/Study/Raspberry/QNX/ide-4.7-workspace/Bsp_Rasp/src/hardware/startup/lib/arm/a.le\libstartup.a(crash_done.o)
 .data          0x00000da0        0x0 D:/Study/Raspberry/QNX/ide-4.7-workspace/Bsp_Rasp/src/hardware/startup/lib/arm/a.le\libstartup.a(dummy_print_char.o)
 .data          0x00000da0        0x0 D:/Study/Raspberry/QNX/ide-4.7-workspace/Bsp_Rasp/src/hardware/startup/lib/arm/a.le\libstartup.a(elf.o)
 .data          0x00000da0        0x0 D:/Study/Raspberry/QNX/ide-4.7-workspace/Bsp_Rasp/src/hardware/startup/lib/arm/a.le\libstartup.a(elf_map.o)
 .data          0x00000da0        0x0 D:/Study/Raspberry/QNX/ide-4.7-workspace/Bsp_Rasp/src/hardware/startup/lib/arm/a.le\libstartup.a(hwi_add_device.o)
 .data          0x00000da0        0x0 D:/Study/Raspberry/QNX/ide-4.7-workspace/Bsp_Rasp/src/hardware/startup/lib/arm/a.le\libstartup.a(hwi_default.o)
 .data          0x00000da0        0x4 D:/Study/Raspberry/QNX/ide-4.7-workspace/Bsp_Rasp/src/hardware/startup/lib/arm/a.le\libstartup.a(mdriver_max.o)
                0x00000da0                mdriver_max
 .data          0x00000da4        0x0 D:/Study/Raspberry/QNX/ide-4.7-workspace/Bsp_Rasp/src/hardware/startup/lib/arm/a.le\libstartup.a(memcpy.o)
 .data          0x00000da4        0x0 D:/Study/Raspberry/QNX/ide-4.7-workspace/Bsp_Rasp/src/hardware/startup/lib/arm/a.le\libstartup.a(timer_ns2tick.o)
 .data          0x00000da4        0x0 D:/Study/Raspberry/QNX/ide-4.7-workspace/Bsp_Rasp/src/hardware/startup/lib/arm/a.le\libstartup.a(timer_tick2ns.o)
 .data          0x00000da4        0x0 D:/Study/Raspberry/QNX/ide-4.7-workspace/Bsp_Rasp/src/hardware/startup/lib/arm/a.le\libstartup.a(vstart_v4.o)
 .data          0x00000da4        0x0 D:/Study/Raspberry/QNX/ide-4.7-workspace/Bsp_Rasp/src/hardware/startup/lib/arm/a.le\libstartup.a(add_cache.o)
 .data          0x00000da4        0x0 D:/Study/Raspberry/QNX/ide-4.7-workspace/Bsp_Rasp/src/hardware/startup/lib/arm/a.le\libstartup.a(armv_chip_1020.o)
 .data          0x00000da4        0x0 D:/Study/Raspberry/QNX/ide-4.7-workspace/Bsp_Rasp/src/hardware/startup/lib/arm/a.le\libstartup.a(armv_chip_1022.o)
 .data          0x00000da4        0x0 D:/Study/Raspberry/QNX/ide-4.7-workspace/Bsp_Rasp/src/hardware/startup/lib/arm/a.le\libstartup.a(armv_chip_1136.o)
 .data          0x00000da4        0x0 D:/Study/Raspberry/QNX/ide-4.7-workspace/Bsp_Rasp/src/hardware/startup/lib/arm/a.le\libstartup.a(armv_chip_1176.o)
 .data          0x00000da4        0x0 D:/Study/Raspberry/QNX/ide-4.7-workspace/Bsp_Rasp/src/hardware/startup/lib/arm/a.le\libstartup.a(armv_chip_1200.o)
 .data          0x00000da4        0x0 D:/Study/Raspberry/QNX/ide-4.7-workspace/Bsp_Rasp/src/hardware/startup/lib/arm/a.le\libstartup.a(armv_chip_23xx.o)
 .data          0x00000da4        0x0 D:/Study/Raspberry/QNX/ide-4.7-workspace/Bsp_Rasp/src/hardware/startup/lib/arm/a.le\libstartup.a(armv_chip_2400.o)
 .data          0x00000da4        0x0 D:/Study/Raspberry/QNX/ide-4.7-workspace/Bsp_Rasp/src/hardware/startup/lib/arm/a.le\libstartup.a(armv_chip_2800.o)
 .data          0x00000da4        0x0 D:/Study/Raspberry/QNX/ide-4.7-workspace/Bsp_Rasp/src/hardware/startup/lib/arm/a.le\libstartup.a(armv_chip_425.o)
 .data          0x00000da4        0x0 D:/Study/Raspberry/QNX/ide-4.7-workspace/Bsp_Rasp/src/hardware/startup/lib/arm/a.le\libstartup.a(armv_chip_465.o)
 .data          0x00000da4        0x0 D:/Study/Raspberry/QNX/ide-4.7-workspace/Bsp_Rasp/src/hardware/startup/lib/arm/a.le\libstartup.a(armv_chip_720.o)
 .data          0x00000da4        0x0 D:/Study/Raspberry/QNX/ide-4.7-workspace/Bsp_Rasp/src/hardware/startup/lib/arm/a.le\libstartup.a(armv_chip_80200.o)
 .data          0x00000da4        0x0 D:/Study/Raspberry/QNX/ide-4.7-workspace/Bsp_Rasp/src/hardware/startup/lib/arm/a.le\libstartup.a(armv_chip_920.o)
 .data          0x00000da4        0x0 D:/Study/Raspberry/QNX/ide-4.7-workspace/Bsp_Rasp/src/hardware/startup/lib/arm/a.le\libstartup.a(armv_chip_922.o)
 .data          0x00000da4        0x0 D:/Study/Raspberry/QNX/ide-4.7-workspace/Bsp_Rasp/src/hardware/startup/lib/arm/a.le\libstartup.a(armv_chip_925.o)
 .data          0x00000da4        0x0 D:/Study/Raspberry/QNX/ide-4.7-workspace/Bsp_Rasp/src/hardware/startup/lib/arm/a.le\libstartup.a(armv_chip_926.o)
 .data          0x00000da4        0x0 D:/Study/Raspberry/QNX/ide-4.7-workspace/Bsp_Rasp/src/hardware/startup/lib/arm/a.le\libstartup.a(armv_chip_a15.o)
 .data          0x00000da4        0x0 D:/Study/Raspberry/QNX/ide-4.7-workspace/Bsp_Rasp/src/hardware/startup/lib/arm/a.le\libstartup.a(armv_chip_a8.o)
 .data          0x00000da4        0x0 D:/Study/Raspberry/QNX/ide-4.7-workspace/Bsp_Rasp/src/hardware/startup/lib/arm/a.le\libstartup.a(armv_chip_a9.o)
 .data          0x00000da4        0x0 D:/Study/Raspberry/QNX/ide-4.7-workspace/Bsp_Rasp/src/hardware/startup/lib/arm/a.le\libstartup.a(armv_chip_mp11.o)
 .data          0x00000da4        0x0 D:/Study/Raspberry/QNX/ide-4.7-workspace/Bsp_Rasp/src/hardware/startup/lib/arm/a.le\libstartup.a(armv_chip_pxa210b.o)
 .data          0x00000da4        0x0 D:/Study/Raspberry/QNX/ide-4.7-workspace/Bsp_Rasp/src/hardware/startup/lib/arm/a.le\libstartup.a(armv_chip_pxa210c.o)
 .data          0x00000da4        0x0 D:/Study/Raspberry/QNX/ide-4.7-workspace/Bsp_Rasp/src/hardware/startup/lib/arm/a.le\libstartup.a(armv_chip_pxa250a.o)
 .data          0x00000da4        0x0 D:/Study/Raspberry/QNX/ide-4.7-workspace/Bsp_Rasp/src/hardware/startup/lib/arm/a.le\libstartup.a(armv_chip_pxa250b.o)
 .data          0x00000da4        0x0 D:/Study/Raspberry/QNX/ide-4.7-workspace/Bsp_Rasp/src/hardware/startup/lib/arm/a.le\libstartup.a(armv_chip_pxa255.o)
 .data          0x00000da4        0x0 D:/Study/Raspberry/QNX/ide-4.7-workspace/Bsp_Rasp/src/hardware/startup/lib/arm/a.le\libstartup.a(armv_chip_pxa270.o)
 .data          0x00000da4        0x0 D:/Study/Raspberry/QNX/ide-4.7-workspace/Bsp_Rasp/src/hardware/startup/lib/arm/a.le\libstartup.a(armv_chip_sa1100.o)
 .data          0x00000da4        0x0 D:/Study/Raspberry/QNX/ide-4.7-workspace/Bsp_Rasp/src/hardware/startup/lib/arm/a.le\libstartup.a(armv_chip_sa1110.o)
 .data          0x00000da4        0x0 D:/Study/Raspberry/QNX/ide-4.7-workspace/Bsp_Rasp/src/hardware/startup/lib/arm/a.le\libstartup.a(armv_chip_sheeva.o)
 .data          0x00000da4        0x0 D:/Study/Raspberry/QNX/ide-4.7-workspace/Bsp_Rasp/src/hardware/startup/lib/arm/a.le\libstartup.a(armv_detect_a9.o)
 .data          0x00000da4        0x0 D:/Study/Raspberry/QNX/ide-4.7-workspace/Bsp_Rasp/src/hardware/startup/lib/arm/a.le\libstartup.a(armv_detect_sheeva.o)
 .data          0x00000da4        0x0 D:/Study/Raspberry/QNX/ide-4.7-workspace/Bsp_Rasp/src/hardware/startup/lib/arm/a.le\libstartup.a(armv_pte_ixp2xxx.o)
 .data          0x00000da4        0x0 D:/Study/Raspberry/QNX/ide-4.7-workspace/Bsp_Rasp/src/hardware/startup/lib/arm/a.le\libstartup.a(armv_pte_v4wb.o)
 .data          0x00000da4        0x0 D:/Study/Raspberry/QNX/ide-4.7-workspace/Bsp_Rasp/src/hardware/startup/lib/arm/a.le\libstartup.a(armv_pte_v4wt.o)
 .data          0x00000da4        0x0 D:/Study/Raspberry/QNX/ide-4.7-workspace/Bsp_Rasp/src/hardware/startup/lib/arm/a.le\libstartup.a(armv_pte_v5wa.o)
 .data          0x00000da4        0x0 D:/Study/Raspberry/QNX/ide-4.7-workspace/Bsp_Rasp/src/hardware/startup/lib/arm/a.le\libstartup.a(armv_pte_v5wb.o)
 .data          0x00000da4        0x0 D:/Study/Raspberry/QNX/ide-4.7-workspace/Bsp_Rasp/src/hardware/startup/lib/arm/a.le\libstartup.a(armv_pte_v5wt.o)
 .data          0x00000da4        0x0 D:/Study/Raspberry/QNX/ide-4.7-workspace/Bsp_Rasp/src/hardware/startup/lib/arm/a.le\libstartup.a(armv_pte_v6mp.o)
 .data          0x00000da4        0x0 D:/Study/Raspberry/QNX/ide-4.7-workspace/Bsp_Rasp/src/hardware/startup/lib/arm/a.le\libstartup.a(armv_pte_v6wb.o)
 .data          0x00000da4        0x0 D:/Study/Raspberry/QNX/ide-4.7-workspace/Bsp_Rasp/src/hardware/startup/lib/arm/a.le\libstartup.a(armv_pte_v6wt.o)
 .data          0x00000da4        0x0 D:/Study/Raspberry/QNX/ide-4.7-workspace/Bsp_Rasp/src/hardware/startup/lib/arm/a.le\libstartup.a(armv_pte_v7mp.o)
 .data          0x00000da4        0x0 D:/Study/Raspberry/QNX/ide-4.7-workspace/Bsp_Rasp/src/hardware/startup/lib/arm/a.le\libstartup.a(armv_pte_v7wa.o)
 .data          0x00000da4        0x0 D:/Study/Raspberry/QNX/ide-4.7-workspace/Bsp_Rasp/src/hardware/startup/lib/arm/a.le\libstartup.a(armv_pte_v7wb.o)
 .data          0x00000da4        0x0 D:/Study/Raspberry/QNX/ide-4.7-workspace/Bsp_Rasp/src/hardware/startup/lib/arm/a.le\libstartup.a(armv_pte_v7wt.o)
 .data          0x00000da4        0x0 D:/Study/Raspberry/QNX/ide-4.7-workspace/Bsp_Rasp/src/hardware/startup/lib/arm/a.le\libstartup.a(armv_pte_xsc3.o)
 .data          0x00000da4        0x0 D:/Study/Raspberry/QNX/ide-4.7-workspace/Bsp_Rasp/src/hardware/startup/lib/arm/a.le\libstartup.a(armv_setup_1136.o)
 .data          0x00000da4        0x0 D:/Study/Raspberry/QNX/ide-4.7-workspace/Bsp_Rasp/src/hardware/startup/lib/arm/a.le\libstartup.a(armv_setup_a15.o)
 .data          0x00000da4        0x0 D:/Study/Raspberry/QNX/ide-4.7-workspace/Bsp_Rasp/src/hardware/startup/lib/arm/a.le\libstartup.a(armv_setup_a8.o)
 .data          0x00000da4        0x4 D:/Study/Raspberry/QNX/ide-4.7-workspace/Bsp_Rasp/src/hardware/startup/lib/arm/a.le\libstartup.a(armv_setup_mp11.o)
                0x00000da4                mpcore_scu_base
 .data          0x00000da8        0x0 D:/Study/Raspberry/QNX/ide-4.7-workspace/Bsp_Rasp/src/hardware/startup/lib/arm/a.le\libstartup.a(armv_setup_v6.o)
 .data          0x00000da8        0x0 D:/Study/Raspberry/QNX/ide-4.7-workspace/Bsp_Rasp/src/hardware/startup/lib/arm/a.le\libstartup.a(armv_setup_v7.o)
 .data          0x00000da8        0x0 D:/Study/Raspberry/QNX/ide-4.7-workspace/Bsp_Rasp/src/hardware/startup/lib/arm/a.le\libstartup.a(armv_setup_xscale.o)
 .data          0x00000da8        0x0 D:/Study/Raspberry/QNX/ide-4.7-workspace/Bsp_Rasp/src/hardware/startup/lib/arm/a.le\libstartup.a(board_cpu_startnext.o)
 .data          0x00000da8        0x0 D:/Study/Raspberry/QNX/ide-4.7-workspace/Bsp_Rasp/src/hardware/startup/lib/arm/a.le\libstartup.a(callout_page_1020.o)
 .data          0x00000da8        0x0 D:/Study/Raspberry/QNX/ide-4.7-workspace/Bsp_Rasp/src/hardware/startup/lib/arm/a.le\libstartup.a(callout_page_1136.o)
 .data          0x00000da8        0x0 D:/Study/Raspberry/QNX/ide-4.7-workspace/Bsp_Rasp/src/hardware/startup/lib/arm/a.le\libstartup.a(callout_page_720.o)
 .data          0x00000da8        0x0 D:/Study/Raspberry/QNX/ide-4.7-workspace/Bsp_Rasp/src/hardware/startup/lib/arm/a.le\libstartup.a(callout_page_920.o)
 .data          0x00000da8        0x0 D:/Study/Raspberry/QNX/ide-4.7-workspace/Bsp_Rasp/src/hardware/startup/lib/arm/a.le\libstartup.a(callout_page_925.o)
 .data          0x00000da8        0x0 D:/Study/Raspberry/QNX/ide-4.7-workspace/Bsp_Rasp/src/hardware/startup/lib/arm/a.le\libstartup.a(callout_page_a15.o)
 .data          0x00000da8        0x0 D:/Study/Raspberry/QNX/ide-4.7-workspace/Bsp_Rasp/src/hardware/startup/lib/arm/a.le\libstartup.a(callout_page_a8.o)
 .data          0x00000da8        0x0 D:/Study/Raspberry/QNX/ide-4.7-workspace/Bsp_Rasp/src/hardware/startup/lib/arm/a.le\libstartup.a(callout_page_mp11.o)
 .data          0x00000da8        0x0 D:/Study/Raspberry/QNX/ide-4.7-workspace/Bsp_Rasp/src/hardware/startup/lib/arm/a.le\libstartup.a(callout_page_sa.o)
 .data          0x00000da8        0x0 D:/Study/Raspberry/QNX/ide-4.7-workspace/Bsp_Rasp/src/hardware/startup/lib/arm/a.le\libstartup.a(callout_page_xsc3.o)
 .data          0x00000da8        0x0 D:/Study/Raspberry/QNX/ide-4.7-workspace/Bsp_Rasp/src/hardware/startup/lib/arm/a.le\libstartup.a(callout_page_xscale.o)
 .data          0x00000da8        0x0 D:/Study/Raspberry/QNX/ide-4.7-workspace/Bsp_Rasp/src/hardware/startup/lib/arm/a.le\libstartup.a(callout_power_926.o)
 .data          0x00000da8        0x0 D:/Study/Raspberry/QNX/ide-4.7-workspace/Bsp_Rasp/src/hardware/startup/lib/arm/a.le\libstartup.a(callout_power_cp15_wfi.o)
 .data          0x00000da8        0x0 D:/Study/Raspberry/QNX/ide-4.7-workspace/Bsp_Rasp/src/hardware/startup/lib/arm/a.le\libstartup.a(callout_power_sa1100.o)
 .data          0x00000da8        0x0 D:/Study/Raspberry/QNX/ide-4.7-workspace/Bsp_Rasp/src/hardware/startup/lib/arm/a.le\libstartup.a(callout_power_v7_wfi.o)
 .data          0x00000da8        0x0 D:/Study/Raspberry/QNX/ide-4.7-workspace/Bsp_Rasp/src/hardware/startup/lib/arm/a.le\libstartup.a(callout_power_xscale.o)
 .data          0x00000da8        0x0 D:/Study/Raspberry/QNX/ide-4.7-workspace/Bsp_Rasp/src/hardware/startup/lib/arm/a.le\libstartup.a(vstart_v6.o)
 .data          0x00000da8        0x0 D:/Study/Raspberry/QNX/ide-4.7-workspace/Bsp_Rasp/src/hardware/startup/lib/arm/a.le\libstartup.a(vstart_v7.o)
 .data          0x00000da8        0x0 D:/Study/Raspberry/QNX/ide-4.7-workspace/Bsp_Rasp/src/hardware/startup/lib/arm/a.le\libstartup.a(arm_gic.o)
 .data          0x00000da8        0x0 D:/Study/Raspberry/QNX/ide-4.7-workspace/Bsp_Rasp/src/hardware/startup/lib/arm/a.le\libstartup.a(armv_cache_1020.o)
 .data          0x00000da8        0x0 D:/Study/Raspberry/QNX/ide-4.7-workspace/Bsp_Rasp/src/hardware/startup/lib/arm/a.le\libstartup.a(armv_cache_1136.o)
 .data          0x00000da8        0x0 D:/Study/Raspberry/QNX/ide-4.7-workspace/Bsp_Rasp/src/hardware/startup/lib/arm/a.le\libstartup.a(armv_cache_720.o)
 .data          0x00000da8        0x0 D:/Study/Raspberry/QNX/ide-4.7-workspace/Bsp_Rasp/src/hardware/startup/lib/arm/a.le\libstartup.a(armv_cache_920.o)
 .data          0x00000da8        0x0 D:/Study/Raspberry/QNX/ide-4.7-workspace/Bsp_Rasp/src/hardware/startup/lib/arm/a.le\libstartup.a(armv_cache_925.o)
 .data          0x00000da8        0x0 D:/Study/Raspberry/QNX/ide-4.7-workspace/Bsp_Rasp/src/hardware/startup/lib/arm/a.le\libstartup.a(armv_cache_926.o)
 .data          0x00000da8        0x0 D:/Study/Raspberry/QNX/ide-4.7-workspace/Bsp_Rasp/src/hardware/startup/lib/arm/a.le\libstartup.a(armv_cache_a15.o)
 .data          0x00000da8        0x0 D:/Study/Raspberry/QNX/ide-4.7-workspace/Bsp_Rasp/src/hardware/startup/lib/arm/a.le\libstartup.a(armv_cache_a8.o)
 .data          0x00000da8        0x0 D:/Study/Raspberry/QNX/ide-4.7-workspace/Bsp_Rasp/src/hardware/startup/lib/arm/a.le\libstartup.a(armv_cache_mp11.o)
 .data          0x00000da8        0x0 D:/Study/Raspberry/QNX/ide-4.7-workspace/Bsp_Rasp/src/hardware/startup/lib/arm/a.le\libstartup.a(armv_cache_sa1100.o)
 .data          0x00000da8        0x0 D:/Study/Raspberry/QNX/ide-4.7-workspace/Bsp_Rasp/src/hardware/startup/lib/arm/a.le\libstartup.a(armv_cache_xsc3.o)
 .data          0x00000da8        0x0 D:/Study/Raspberry/QNX/ide-4.7-workspace/Bsp_Rasp/src/hardware/startup/lib/arm/a.le\libstartup.a(armv_cache_xscale.o)
 .data          0x00000da8        0x0 D:/Study/Raspberry/QNX/ide-4.7-workspace/Bsp_Rasp/src/hardware/startup/lib/arm/a.le\libstartup.a(armv_chip_a9mp.o)
 .data          0x00000da8        0x0 D:/Study/Raspberry/QNX/ide-4.7-workspace/Bsp_Rasp/src/hardware/startup/lib/arm/a.le\libstartup.a(armv_chip_a9up.o)
 .data          0x00000da8        0x0 D:/Study/Raspberry/QNX/ide-4.7-workspace/Bsp_Rasp/src/hardware/startup/lib/arm/a.le\libstartup.a(armv_chip_sheeva_v6.o)
 .data          0x00000da8        0x0 D:/Study/Raspberry/QNX/ide-4.7-workspace/Bsp_Rasp/src/hardware/startup/lib/arm/a.le\libstartup.a(armv_chip_sheeva_v7.o)
 .data          0x00000da8        0x0 D:/Study/Raspberry/QNX/ide-4.7-workspace/Bsp_Rasp/src/hardware/startup/lib/arm/a.le\libstartup.a(armv_pte_v6wa.o)
 .data          0x00000da8        0x0 D:/Study/Raspberry/QNX/ide-4.7-workspace/Bsp_Rasp/src/hardware/startup/lib/arm/a.le\libstartup.a(armv_setup_a9mp.o)
 .data          0x00000da8        0x0 D:/Study/Raspberry/QNX/ide-4.7-workspace/Bsp_Rasp/src/hardware/startup/lib/arm/a.le\libstartup.a(armv_setup_a9up.o)
 .data          0x00000da8        0x0 D:/Study/Raspberry/QNX/ide-4.7-workspace/Bsp_Rasp/src/hardware/startup/lib/arm/a.le\libstartup.a(armv_setup_sheeva_v6.o)
 .data          0x00000da8        0x0 D:/Study/Raspberry/QNX/ide-4.7-workspace/Bsp_Rasp/src/hardware/startup/lib/arm/a.le\libstartup.a(armv_setup_sheeva_v7.o)
 .data          0x00000da8        0x0 D:/Study/Raspberry/QNX/ide-4.7-workspace/Bsp_Rasp/src/hardware/startup/lib/arm/a.le\libstartup.a(callout_cache_1020.o)
 .data          0x00000da8        0x0 D:/Study/Raspberry/QNX/ide-4.7-workspace/Bsp_Rasp/src/hardware/startup/lib/arm/a.le\libstartup.a(callout_cache_1136.o)
 .data          0x00000da8        0x0 D:/Study/Raspberry/QNX/ide-4.7-workspace/Bsp_Rasp/src/hardware/startup/lib/arm/a.le\libstartup.a(callout_cache_720.o)
 .data          0x00000da8        0x0 D:/Study/Raspberry/QNX/ide-4.7-workspace/Bsp_Rasp/src/hardware/startup/lib/arm/a.le\libstartup.a(callout_cache_920.o)
 .data          0x00000da8        0x0 D:/Study/Raspberry/QNX/ide-4.7-workspace/Bsp_Rasp/src/hardware/startup/lib/arm/a.le\libstartup.a(callout_cache_925.o)
 .data          0x00000da8        0x0 D:/Study/Raspberry/QNX/ide-4.7-workspace/Bsp_Rasp/src/hardware/startup/lib/arm/a.le\libstartup.a(callout_cache_926.o)
 .data          0x00000da8        0x0 D:/Study/Raspberry/QNX/ide-4.7-workspace/Bsp_Rasp/src/hardware/startup/lib/arm/a.le\libstartup.a(callout_cache_a15.o)
 .data          0x00000da8        0x0 D:/Study/Raspberry/QNX/ide-4.7-workspace/Bsp_Rasp/src/hardware/startup/lib/arm/a.le\libstartup.a(callout_cache_a8.o)
 .data          0x00000da8        0x0 D:/Study/Raspberry/QNX/ide-4.7-workspace/Bsp_Rasp/src/hardware/startup/lib/arm/a.le\libstartup.a(callout_cache_mp11.o)
 .data          0x00000da8        0x0 D:/Study/Raspberry/QNX/ide-4.7-workspace/Bsp_Rasp/src/hardware/startup/lib/arm/a.le\libstartup.a(callout_cache_sa.o)
 .data          0x00000da8        0x0 D:/Study/Raspberry/QNX/ide-4.7-workspace/Bsp_Rasp/src/hardware/startup/lib/arm/a.le\libstartup.a(callout_cache_xsc3.o)
 .data          0x00000da8        0x0 D:/Study/Raspberry/QNX/ide-4.7-workspace/Bsp_Rasp/src/hardware/startup/lib/arm/a.le\libstartup.a(callout_cache_xscale.o)
 .data          0x00000da8        0x0 D:/Study/Raspberry/QNX/ide-4.7-workspace/Bsp_Rasp/src/hardware/startup/lib/arm/a.le\libstartup.a(callout_page_a9mp.o)
 .data          0x00000da8        0x0 D:/Study/Raspberry/QNX/ide-4.7-workspace/Bsp_Rasp/src/hardware/startup/lib/arm/a.le\libstartup.a(callout_page_a9up.o)
 .data          0x00000da8        0x0 D:/Study/Raspberry/QNX/ide-4.7-workspace/Bsp_Rasp/src/hardware/startup/lib/arm/a.le\libstartup.a(callout_page_sheeva_v6.o)
 .data          0x00000da8        0x0 D:/Study/Raspberry/QNX/ide-4.7-workspace/Bsp_Rasp/src/hardware/startup/lib/arm/a.le\libstartup.a(callout_page_sheeva_v7.o)
 .data          0x00000da8        0x0 D:/Study/Raspberry/QNX/ide-4.7-workspace/Bsp_Rasp/src/hardware/startup/lib/arm/a.le\libstartup.a(callout_power_sheeva_v6.o)
 .data          0x00000da8        0x0 D:/Study/Raspberry/QNX/ide-4.7-workspace/Bsp_Rasp/src/hardware/startup/lib/arm/a.le\libstartup.a(callout_power_sheeva_v7.o)
 .data          0x00000da8        0x0 D:/Study/Raspberry/QNX/ide-4.7-workspace/Bsp_Rasp/src/hardware/startup/lib/arm/a.le\libstartup.a(armv_cache_a9mp.o)
 .data          0x00000da8        0x0 D:/Study/Raspberry/QNX/ide-4.7-workspace/Bsp_Rasp/src/hardware/startup/lib/arm/a.le\libstartup.a(armv_cache_a9up.o)
 .data          0x00000da8        0x0 D:/Study/Raspberry/QNX/ide-4.7-workspace/Bsp_Rasp/src/hardware/startup/lib/arm/a.le\libstartup.a(armv_cache_sheeva_v6.o)
 .data          0x00000da8        0x0 D:/Study/Raspberry/QNX/ide-4.7-workspace/Bsp_Rasp/src/hardware/startup/lib/arm/a.le\libstartup.a(armv_cache_sheeva_v7.o)
 .data          0x00000da8        0x0 D:/Study/Raspberry/QNX/ide-4.7-workspace/Bsp_Rasp/src/hardware/startup/lib/arm/a.le\libstartup.a(callout_cache_a9mp.o)
 .data          0x00000da8        0x0 D:/Study/Raspberry/QNX/ide-4.7-workspace/Bsp_Rasp/src/hardware/startup/lib/arm/a.le\libstartup.a(callout_cache_a9up.o)
 .data          0x00000da8        0x0 D:/Study/Raspberry/QNX/ide-4.7-workspace/Bsp_Rasp/src/hardware/startup/lib/arm/a.le\libstartup.a(callout_cache_sheeva_v6.o)
 .data          0x00000da8        0x0 D:/Study/Raspberry/QNX/ide-4.7-workspace/Bsp_Rasp/src/hardware/startup/lib/arm/a.le\libstartup.a(callout_cache_sheeva_v7.o)
 .data          0x00000da8        0x0 C:/QNX650/target/qnx6/armle/usr/lib\libucl.a(n2b_d.o)
 .data          0x00000da8        0x0 C:/QNX650/host/win32/x86/usr/lib/gcc/arm-unknown-nto-qnx6.5.0/4.4.2//libgcc.a(_udivsi3.o)
 .data          0x00000da8        0x0 C:/QNX650/host/win32/x86/usr/lib/gcc/arm-unknown-nto-qnx6.5.0/4.4.2//libgcc.a(_dvmd_nto.o)
 .data          0x00000da8        0x0 C:/QNX650/host/win32/x86/usr/lib/gcc/arm-unknown-nto-qnx6.5.0/4.4.2//libgcc.a(_udivdi3.o)
 .data          0x00000da8        0x0 C:/QNX650/host/win32/x86/usr/lib/gcc/arm-unknown-nto-qnx6.5.0/4.4.2//libgcc.a(_umoddi3.o)
 .data          0x00000da8        0x0 C:/QNX650/host/win32/x86/usr/lib/gcc/arm-unknown-nto-qnx6.5.0/4.4.2//libgcc.a(_umodsi3.o)
 .data          0x00000da8        0x0 C:/QNX650/host/win32/x86/usr/lib/gcc/arm-unknown-nto-qnx6.5.0/4.4.2//libgcc.a(_clz.o)
 .data          0x00000da8        0x0 C:/QNX650/target/qnx6/armle/lib\libc.a(hwi_find_item.o)
 .data          0x00000da8        0x0 C:/QNX650/target/qnx6/armle/lib\libc.a(hwi_off2tag.o)
 .data          0x00000da8        0x0 C:/QNX650/target/qnx6/armle/lib\libc.a(hwi_tag2off.o)
 .data          0x00000da8        0x0 C:/QNX650/target/qnx6/armle/lib\libc.a(memcmp.o)
 .data          0x00000da8        0x0 C:/QNX650/target/qnx6/armle/lib\libc.a(memset.o)
 .data          0x00000da8        0x0 C:/QNX650/target/qnx6/armle/lib\libc.a(strchr.o)
 .data          0x00000da8        0x0 C:/QNX650/target/qnx6/armle/lib\libc.a(strcmp.o)
 .data          0x00000da8        0x0 C:/QNX650/target/qnx6/armle/lib\libc.a(strcpy.o)
 .data          0x00000da8        0x0 C:/QNX650/target/qnx6/armle/lib\libc.a(__cpu_flags.o)

.data1
 *(.data1)

.bss            0x00000000      0x144
 *(.dynbss)
 *(.bss)
 .bss           0x00000000        0x0 init_asinfo.o
 .bss           0x00000000        0x0 init_hwinfo.o
 .bss           0x00000000        0x0 init_intrinfo.o
 .bss           0x00000000        0x0 init_pio.o
 .bss           0x00000000        0x8 init_qtime_bcm2835.o
 .bss           0x00000008        0x0 init_raminfo.o
 .bss           0x00000008        0x0 main.o
 .bss           0x00000008        0x0 rtc_time.o
 .bss           0x00000008       0xa4 D:/Study/Raspberry/QNX/ide-4.7-workspace/Bsp_Rasp/src/hardware/startup/lib/arm/a.le\libstartup.a(_main.o)
                0x000000a8                debug_flag
 .bss           0x000000ac        0x4 D:/Study/Raspberry/QNX/ide-4.7-workspace/Bsp_Rasp/src/hardware/startup/lib/arm/a.le\libstartup.a(add_interrupt.o)
 .bss           0x000000b0        0x0 D:/Study/Raspberry/QNX/ide-4.7-workspace/Bsp_Rasp/src/hardware/startup/lib/arm/a.le\libstartup.a(alloc_qtime.o)
 .bss           0x000000b0        0x0 D:/Study/Raspberry/QNX/ide-4.7-workspace/Bsp_Rasp/src/hardware/startup/lib/arm/a.le\libstartup.a(board_init.o)
 .bss           0x000000b0        0x0 D:/Study/Raspberry/QNX/ide-4.7-workspace/Bsp_Rasp/src/hardware/startup/lib/arm/a.le\libstartup.a(callout_debug_bcm2835.o)
 .bss           0x000000b0        0x0 D:/Study/Raspberry/QNX/ide-4.7-workspace/Bsp_Rasp/src/hardware/startup/lib/arm/a.le\libstartup.a(callout_interrupt_bcm2835.o)
 .bss           0x000000b0        0x0 D:/Study/Raspberry/QNX/ide-4.7-workspace/Bsp_Rasp/src/hardware/startup/lib/arm/a.le\libstartup.a(callout_reboot_at91sam9xx.o)
 .bss           0x000000b0        0x0 D:/Study/Raspberry/QNX/ide-4.7-workspace/Bsp_Rasp/src/hardware/startup/lib/arm/a.le\libstartup.a(callout_timer_bcm2835.o)
 .bss           0x000000b0       0x14 D:/Study/Raspberry/QNX/ide-4.7-workspace/Bsp_Rasp/src/hardware/startup/lib/arm/a.le\libstartup.a(callouts.o)
 .bss           0x000000c4        0x8 D:/Study/Raspberry/QNX/ide-4.7-workspace/Bsp_Rasp/src/hardware/startup/lib/arm/a.le\libstartup.a(common_options.o)
 .bss           0x000000cc        0x0 D:/Study/Raspberry/QNX/ide-4.7-workspace/Bsp_Rasp/src/hardware/startup/lib/arm/a.le\libstartup.a(cpu_common_options.o)
 .bss           0x000000cc        0x0 D:/Study/Raspberry/QNX/ide-4.7-workspace/Bsp_Rasp/src/hardware/startup/lib/arm/a.le\libstartup.a(cpu_startup.o)
 .bss           0x000000cc        0x0 D:/Study/Raspberry/QNX/ide-4.7-workspace/Bsp_Rasp/src/hardware/startup/lib/arm/a.le\libstartup.a(cstart.o)
 .bss           0x000000cc        0x0 D:/Study/Raspberry/QNX/ide-4.7-workspace/Bsp_Rasp/src/hardware/startup/lib/arm/a.le\libstartup.a(debug.o)
 .bss           0x000000cc        0xc D:/Study/Raspberry/QNX/ide-4.7-workspace/Bsp_Rasp/src/hardware/startup/lib/arm/a.le\libstartup.a(getopt.o)
                0x000000cc                optind
 .bss           0x000000d8        0x0 D:/Study/Raspberry/QNX/ide-4.7-workspace/Bsp_Rasp/src/hardware/startup/lib/arm/a.le\libstartup.a(getsize.o)
 .bss           0x000000d8        0x0 D:/Study/Raspberry/QNX/ide-4.7-workspace/Bsp_Rasp/src/hardware/startup/lib/arm/a.le\libstartup.a(hw_serbcm2835debug.o)
 .bss           0x000000d8        0x0 D:/Study/Raspberry/QNX/ide-4.7-workspace/Bsp_Rasp/src/hardware/startup/lib/arm/a.le\libstartup.a(hwi_add_nanospin.o)
 .bss           0x000000d8        0x8 D:/Study/Raspberry/QNX/ide-4.7-workspace/Bsp_Rasp/src/hardware/startup/lib/arm/a.le\libstartup.a(hwi_alloc.o)
 .bss           0x000000e0        0x0 D:/Study/Raspberry/QNX/ide-4.7-workspace/Bsp_Rasp/src/hardware/startup/lib/arm/a.le\libstartup.a(init_cacheattr.o)
 .bss           0x000000e0        0x4 D:/Study/Raspberry/QNX/ide-4.7-workspace/Bsp_Rasp/src/hardware/startup/lib/arm/a.le\libstartup.a(init_cpuinfo.o)
 .bss           0x000000e4        0x0 D:/Study/Raspberry/QNX/ide-4.7-workspace/Bsp_Rasp/src/hardware/startup/lib/arm/a.le\libstartup.a(init_mmu.o)
 .bss           0x000000e4        0x0 D:/Study/Raspberry/QNX/ide-4.7-workspace/Bsp_Rasp/src/hardware/startup/lib/arm/a.le\libstartup.a(init_system_private.o)
 .bss           0x000000e4        0x0 D:/Study/Raspberry/QNX/ide-4.7-workspace/Bsp_Rasp/src/hardware/startup/lib/arm/a.le\libstartup.a(jtag.o)
 .bss           0x000000e4        0x4 D:/Study/Raspberry/QNX/ide-4.7-workspace/Bsp_Rasp/src/hardware/startup/lib/arm/a.le\libstartup.a(kprintf.o)
 .bss           0x000000e8        0x0 D:/Study/Raspberry/QNX/ide-4.7-workspace/Bsp_Rasp/src/hardware/startup/lib/arm/a.le\libstartup.a(load_ifs.o)
 .bss           0x000000e8        0x0 D:/Study/Raspberry/QNX/ide-4.7-workspace/Bsp_Rasp/src/hardware/startup/lib/arm/a.le\libstartup.a(map_callout_io.o)
 .bss           0x000000e8        0x0 D:/Study/Raspberry/QNX/ide-4.7-workspace/Bsp_Rasp/src/hardware/startup/lib/arm/a.le\libstartup.a(map_startup_io.o)
 .bss           0x000000e8        0x0 D:/Study/Raspberry/QNX/ide-4.7-workspace/Bsp_Rasp/src/hardware/startup/lib/arm/a.le\libstartup.a(map_startup_mem.o)
 .bss           0x000000e8        0x0 D:/Study/Raspberry/QNX/ide-4.7-workspace/Bsp_Rasp/src/hardware/startup/lib/arm/a.le\libstartup.a(memfuncs.o)
 .bss           0x000000e8        0x0 D:/Study/Raspberry/QNX/ide-4.7-workspace/Bsp_Rasp/src/hardware/startup/lib/arm/a.le\libstartup.a(memmove.o)
 .bss           0x000000e8        0x0 D:/Study/Raspberry/QNX/ide-4.7-workspace/Bsp_Rasp/src/hardware/startup/lib/arm/a.le\libstartup.a(print_sysp.o)
 .bss           0x000000e8       0x1c D:/Study/Raspberry/QNX/ide-4.7-workspace/Bsp_Rasp/src/hardware/startup/lib/arm/a.le\libstartup.a(ram.o)
 .bss           0x00000104       0x10 D:/Study/Raspberry/QNX/ide-4.7-workspace/Bsp_Rasp/src/hardware/startup/lib/arm/a.le\libstartup.a(restore_ifs.o)
                0x0000010c                ifs2_paddr_src
                0x00000104                ifs2_paddr_dst
                0x00000108                rifs_flag
                0x00000110                ifs2_size
 .bss           0x00000114        0x0 D:/Study/Raspberry/QNX/ide-4.7-workspace/Bsp_Rasp/src/hardware/startup/lib/arm/a.le\libstartup.a(rtc_time.o)
 .bss           0x00000114        0x0 D:/Study/Raspberry/QNX/ide-4.7-workspace/Bsp_Rasp/src/hardware/startup/lib/arm/a.le\libstartup.a(startnext.o)
 .bss           0x00000114        0x0 D:/Study/Raspberry/QNX/ide-4.7-workspace/Bsp_Rasp/src/hardware/startup/lib/arm/a.le\libstartup.a(startup_info.o)
 .bss           0x00000114        0x0 D:/Study/Raspberry/QNX/ide-4.7-workspace/Bsp_Rasp/src/hardware/startup/lib/arm/a.le\libstartup.a(strings.o)
 .bss           0x00000114        0x0 D:/Study/Raspberry/QNX/ide-4.7-workspace/Bsp_Rasp/src/hardware/startup/lib/arm/a.le\libstartup.a(strtoul.o)
 .bss           0x00000114        0x8 D:/Study/Raspberry/QNX/ide-4.7-workspace/Bsp_Rasp/src/hardware/startup/lib/arm/a.le\libstartup.a(syspage_memory.o)
 .bss           0x0000011c        0x0 D:/Study/Raspberry/QNX/ide-4.7-workspace/Bsp_Rasp/src/hardware/startup/lib/arm/a.le\libstartup.a(tweak_cmdline.o)
 .bss           0x0000011c        0x0 D:/Study/Raspberry/QNX/ide-4.7-workspace/Bsp_Rasp/src/hardware/startup/lib/arm/a.le\libstartup.a(uncompress.o)
 .bss           0x0000011c        0x0 D:/Study/Raspberry/QNX/ide-4.7-workspace/Bsp_Rasp/src/hardware/startup/lib/arm/a.le\libstartup.a(uncompress_ucl.o)
 .bss           0x0000011c        0x0 D:/Study/Raspberry/QNX/ide-4.7-workspace/Bsp_Rasp/src/hardware/startup/lib/arm/a.le\libstartup.a(arm_cache.o)
 .bss           0x0000011c        0x0 D:/Study/Raspberry/QNX/ide-4.7-workspace/Bsp_Rasp/src/hardware/startup/lib/arm/a.le\libstartup.a(arm_cpuspeed.o)
 .bss           0x0000011c        0x0 D:/Study/Raspberry/QNX/ide-4.7-workspace/Bsp_Rasp/src/hardware/startup/lib/arm/a.le\libstartup.a(arm_map.o)
 .bss           0x0000011c        0x0 D:/Study/Raspberry/QNX/ide-4.7-workspace/Bsp_Rasp/src/hardware/startup/lib/arm/a.le\libstartup.a(arm_pte.o)
 .bss           0x0000011c        0x0 D:/Study/Raspberry/QNX/ide-4.7-workspace/Bsp_Rasp/src/hardware/startup/lib/arm/a.le\libstartup.a(armv_chip_detect.o)
 .bss           0x0000011c        0x0 D:/Study/Raspberry/QNX/ide-4.7-workspace/Bsp_Rasp/src/hardware/startup/lib/arm/a.le\libstartup.a(armv_list.o)
 .bss           0x0000011c        0x0 D:/Study/Raspberry/QNX/ide-4.7-workspace/Bsp_Rasp/src/hardware/startup/lib/arm/a.le\libstartup.a(as_add.o)
 .bss           0x0000011c        0x0 D:/Study/Raspberry/QNX/ide-4.7-workspace/Bsp_Rasp/src/hardware/startup/lib/arm/a.le\libstartup.a(as_add64.o)
 .bss           0x0000011c        0x0 D:/Study/Raspberry/QNX/ide-4.7-workspace/Bsp_Rasp/src/hardware/startup/lib/arm/a.le\libstartup.a(as_add_containing.o)
 .bss           0x0000011c        0x0 D:/Study/Raspberry/QNX/ide-4.7-workspace/Bsp_Rasp/src/hardware/startup/lib/arm/a.le\libstartup.a(as_default.o)
 .bss           0x0000011c        0x0 D:/Study/Raspberry/QNX/ide-4.7-workspace/Bsp_Rasp/src/hardware/startup/lib/arm/a.le\libstartup.a(as_find.o)
 .bss           0x0000011c        0x0 D:/Study/Raspberry/QNX/ide-4.7-workspace/Bsp_Rasp/src/hardware/startup/lib/arm/a.le\libstartup.a(as_find_containing.o)
 .bss           0x0000011c        0x0 D:/Study/Raspberry/QNX/ide-4.7-workspace/Bsp_Rasp/src/hardware/startup/lib/arm/a.le\libstartup.a(as_off2info.o)
 .bss           0x0000011c        0x0 D:/Study/Raspberry/QNX/ide-4.7-workspace/Bsp_Rasp/src/hardware/startup/lib/arm/a.le\libstartup.a(board_cpu_startup.o)
 .bss           0x0000011c        0x0 D:/Study/Raspberry/QNX/ide-4.7-workspace/Bsp_Rasp/src/hardware/startup/lib/arm/a.le\libstartup.a(cpu_startnext.o)
 .bss           0x0000011c        0x0 D:/Study/Raspberry/QNX/ide-4.7-workspace/Bsp_Rasp/src/hardware/startup/lib/arm/a.le\libstartup.a(cpu_syspage_memory.o)
 .bss           0x0000011c        0x0 D:/Study/Raspberry/QNX/ide-4.7-workspace/Bsp_Rasp/src/hardware/startup/lib/arm/a.le\libstartup.a(crash_done.o)
 .bss           0x0000011c        0x0 D:/Study/Raspberry/QNX/ide-4.7-workspace/Bsp_Rasp/src/hardware/startup/lib/arm/a.le\libstartup.a(dummy_print_char.o)
 .bss           0x0000011c        0x0 D:/Study/Raspberry/QNX/ide-4.7-workspace/Bsp_Rasp/src/hardware/startup/lib/arm/a.le\libstartup.a(elf.o)
 .bss           0x0000011c       0x24 D:/Study/Raspberry/QNX/ide-4.7-workspace/Bsp_Rasp/src/hardware/startup/lib/arm/a.le\libstartup.a(elf_map.o)
 .bss           0x00000140        0x0 D:/Study/Raspberry/QNX/ide-4.7-workspace/Bsp_Rasp/src/hardware/startup/lib/arm/a.le\libstartup.a(hwi_add_device.o)
 .bss           0x00000140        0x0 D:/Study/Raspberry/QNX/ide-4.7-workspace/Bsp_Rasp/src/hardware/startup/lib/arm/a.le\libstartup.a(hwi_default.o)
 .bss           0x00000140        0x0 D:/Study/Raspberry/QNX/ide-4.7-workspace/Bsp_Rasp/src/hardware/startup/lib/arm/a.le\libstartup.a(mdriver_max.o)
 .bss           0x00000140        0x0 D:/Study/Raspberry/QNX/ide-4.7-workspace/Bsp_Rasp/src/hardware/startup/lib/arm/a.le\libstartup.a(memcpy.o)
 .bss           0x00000140        0x0 D:/Study/Raspberry/QNX/ide-4.7-workspace/Bsp_Rasp/src/hardware/startup/lib/arm/a.le\libstartup.a(timer_ns2tick.o)
 .bss           0x00000140        0x0 D:/Study/Raspberry/QNX/ide-4.7-workspace/Bsp_Rasp/src/hardware/startup/lib/arm/a.le\libstartup.a(timer_tick2ns.o)
 .bss           0x00000140        0x0 D:/Study/Raspberry/QNX/ide-4.7-workspace/Bsp_Rasp/src/hardware/startup/lib/arm/a.le\libstartup.a(vstart_v4.o)
 .bss           0x00000140        0x4 D:/Study/Raspberry/QNX/ide-4.7-workspace/Bsp_Rasp/src/hardware/startup/lib/arm/a.le\libstartup.a(add_cache.o)
 .bss           0x00000144        0x0 D:/Study/Raspberry/QNX/ide-4.7-workspace/Bsp_Rasp/src/hardware/startup/lib/arm/a.le\libstartup.a(armv_chip_1020.o)
 .bss           0x00000144        0x0 D:/Study/Raspberry/QNX/ide-4.7-workspace/Bsp_Rasp/src/hardware/startup/lib/arm/a.le\libstartup.a(armv_chip_1022.o)
 .bss           0x00000144        0x0 D:/Study/Raspberry/QNX/ide-4.7-workspace/Bsp_Rasp/src/hardware/startup/lib/arm/a.le\libstartup.a(armv_chip_1136.o)
 .bss           0x00000144        0x0 D:/Study/Raspberry/QNX/ide-4.7-workspace/Bsp_Rasp/src/hardware/startup/lib/arm/a.le\libstartup.a(armv_chip_1176.o)
 .bss           0x00000144        0x0 D:/Study/Raspberry/QNX/ide-4.7-workspace/Bsp_Rasp/src/hardware/startup/lib/arm/a.le\libstartup.a(armv_chip_1200.o)
 .bss           0x00000144        0x0 D:/Study/Raspberry/QNX/ide-4.7-workspace/Bsp_Rasp/src/hardware/startup/lib/arm/a.le\libstartup.a(armv_chip_23xx.o)
 .bss           0x00000144        0x0 D:/Study/Raspberry/QNX/ide-4.7-workspace/Bsp_Rasp/src/hardware/startup/lib/arm/a.le\libstartup.a(armv_chip_2400.o)
 .bss           0x00000144        0x0 D:/Study/Raspberry/QNX/ide-4.7-workspace/Bsp_Rasp/src/hardware/startup/lib/arm/a.le\libstartup.a(armv_chip_2800.o)
 .bss           0x00000144        0x0 D:/Study/Raspberry/QNX/ide-4.7-workspace/Bsp_Rasp/src/hardware/startup/lib/arm/a.le\libstartup.a(armv_chip_425.o)
 .bss           0x00000144        0x0 D:/Study/Raspberry/QNX/ide-4.7-workspace/Bsp_Rasp/src/hardware/startup/lib/arm/a.le\libstartup.a(armv_chip_465.o)
 .bss           0x00000144        0x0 D:/Study/Raspberry/QNX/ide-4.7-workspace/Bsp_Rasp/src/hardware/startup/lib/arm/a.le\libstartup.a(armv_chip_720.o)
 .bss           0x00000144        0x0 D:/Study/Raspberry/QNX/ide-4.7-workspace/Bsp_Rasp/src/hardware/startup/lib/arm/a.le\libstartup.a(armv_chip_80200.o)
 .bss           0x00000144        0x0 D:/Study/Raspberry/QNX/ide-4.7-workspace/Bsp_Rasp/src/hardware/startup/lib/arm/a.le\libstartup.a(armv_chip_920.o)
 .bss           0x00000144        0x0 D:/Study/Raspberry/QNX/ide-4.7-workspace/Bsp_Rasp/src/hardware/startup/lib/arm/a.le\libstartup.a(armv_chip_922.o)
 .bss           0x00000144        0x0 D:/Study/Raspberry/QNX/ide-4.7-workspace/Bsp_Rasp/src/hardware/startup/lib/arm/a.le\libstartup.a(armv_chip_925.o)
 .bss           0x00000144        0x0 D:/Study/Raspberry/QNX/ide-4.7-workspace/Bsp_Rasp/src/hardware/startup/lib/arm/a.le\libstartup.a(armv_chip_926.o)
 .bss           0x00000144        0x0 D:/Study/Raspberry/QNX/ide-4.7-workspace/Bsp_Rasp/src/hardware/startup/lib/arm/a.le\libstartup.a(armv_chip_a15.o)
 .bss           0x00000144        0x0 D:/Study/Raspberry/QNX/ide-4.7-workspace/Bsp_Rasp/src/hardware/startup/lib/arm/a.le\libstartup.a(armv_chip_a8.o)
 .bss           0x00000144        0x0 D:/Study/Raspberry/QNX/ide-4.7-workspace/Bsp_Rasp/src/hardware/startup/lib/arm/a.le\libstartup.a(armv_chip_a9.o)
 .bss           0x00000144        0x0 D:/Study/Raspberry/QNX/ide-4.7-workspace/Bsp_Rasp/src/hardware/startup/lib/arm/a.le\libstartup.a(armv_chip_mp11.o)
 .bss           0x00000144        0x0 D:/Study/Raspberry/QNX/ide-4.7-workspace/Bsp_Rasp/src/hardware/startup/lib/arm/a.le\libstartup.a(armv_chip_pxa210b.o)
 .bss           0x00000144        0x0 D:/Study/Raspberry/QNX/ide-4.7-workspace/Bsp_Rasp/src/hardware/startup/lib/arm/a.le\libstartup.a(armv_chip_pxa210c.o)
 .bss           0x00000144        0x0 D:/Study/Raspberry/QNX/ide-4.7-workspace/Bsp_Rasp/src/hardware/startup/lib/arm/a.le\libstartup.a(armv_chip_pxa250a.o)
 .bss           0x00000144        0x0 D:/Study/Raspberry/QNX/ide-4.7-workspace/Bsp_Rasp/src/hardware/startup/lib/arm/a.le\libstartup.a(armv_chip_pxa250b.o)
 .bss           0x00000144        0x0 D:/Study/Raspberry/QNX/ide-4.7-workspace/Bsp_Rasp/src/hardware/startup/lib/arm/a.le\libstartup.a(armv_chip_pxa255.o)
 .bss           0x00000144        0x0 D:/Study/Raspberry/QNX/ide-4.7-workspace/Bsp_Rasp/src/hardware/startup/lib/arm/a.le\libstartup.a(armv_chip_pxa270.o)
 .bss           0x00000144        0x0 D:/Study/Raspberry/QNX/ide-4.7-workspace/Bsp_Rasp/src/hardware/startup/lib/arm/a.le\libstartup.a(armv_chip_sa1100.o)
 .bss           0x00000144        0x0 D:/Study/Raspberry/QNX/ide-4.7-workspace/Bsp_Rasp/src/hardware/startup/lib/arm/a.le\libstartup.a(armv_chip_sa1110.o)
 .bss           0x00000144        0x0 D:/Study/Raspberry/QNX/ide-4.7-workspace/Bsp_Rasp/src/hardware/startup/lib/arm/a.le\libstartup.a(armv_chip_sheeva.o)
 .bss           0x00000144        0x0 D:/Study/Raspberry/QNX/ide-4.7-workspace/Bsp_Rasp/src/hardware/startup/lib/arm/a.le\libstartup.a(armv_detect_a9.o)
 .bss           0x00000144        0x0 D:/Study/Raspberry/QNX/ide-4.7-workspace/Bsp_Rasp/src/hardware/startup/lib/arm/a.le\libstartup.a(armv_detect_sheeva.o)
 .bss           0x00000144        0x0 D:/Study/Raspberry/QNX/ide-4.7-workspace/Bsp_Rasp/src/hardware/startup/lib/arm/a.le\libstartup.a(armv_pte_ixp2xxx.o)
 .bss           0x00000144        0x0 D:/Study/Raspberry/QNX/ide-4.7-workspace/Bsp_Rasp/src/hardware/startup/lib/arm/a.le\libstartup.a(armv_pte_v4wb.o)
 .bss           0x00000144        0x0 D:/Study/Raspberry/QNX/ide-4.7-workspace/Bsp_Rasp/src/hardware/startup/lib/arm/a.le\libstartup.a(armv_pte_v4wt.o)
 .bss           0x00000144        0x0 D:/Study/Raspberry/QNX/ide-4.7-workspace/Bsp_Rasp/src/hardware/startup/lib/arm/a.le\libstartup.a(armv_pte_v5wa.o)
 .bss           0x00000144        0x0 D:/Study/Raspberry/QNX/ide-4.7-workspace/Bsp_Rasp/src/hardware/startup/lib/arm/a.le\libstartup.a(armv_pte_v5wb.o)
 .bss           0x00000144        0x0 D:/Study/Raspberry/QNX/ide-4.7-workspace/Bsp_Rasp/src/hardware/startup/lib/arm/a.le\libstartup.a(armv_pte_v5wt.o)
 .bss           0x00000144        0x0 D:/Study/Raspberry/QNX/ide-4.7-workspace/Bsp_Rasp/src/hardware/startup/lib/arm/a.le\libstartup.a(armv_pte_v6mp.o)
 .bss           0x00000144        0x0 D:/Study/Raspberry/QNX/ide-4.7-workspace/Bsp_Rasp/src/hardware/startup/lib/arm/a.le\libstartup.a(armv_pte_v6wb.o)
 .bss           0x00000144        0x0 D:/Study/Raspberry/QNX/ide-4.7-workspace/Bsp_Rasp/src/hardware/startup/lib/arm/a.le\libstartup.a(armv_pte_v6wt.o)
 .bss           0x00000144        0x0 D:/Study/Raspberry/QNX/ide-4.7-workspace/Bsp_Rasp/src/hardware/startup/lib/arm/a.le\libstartup.a(armv_pte_v7mp.o)
 .bss           0x00000144        0x0 D:/Study/Raspberry/QNX/ide-4.7-workspace/Bsp_Rasp/src/hardware/startup/lib/arm/a.le\libstartup.a(armv_pte_v7wa.o)
 .bss           0x00000144        0x0 D:/Study/Raspberry/QNX/ide-4.7-workspace/Bsp_Rasp/src/hardware/startup/lib/arm/a.le\libstartup.a(armv_pte_v7wb.o)
 .bss           0x00000144        0x0 D:/Study/Raspberry/QNX/ide-4.7-workspace/Bsp_Rasp/src/hardware/startup/lib/arm/a.le\libstartup.a(armv_pte_v7wt.o)
 .bss           0x00000144        0x0 D:/Study/Raspberry/QNX/ide-4.7-workspace/Bsp_Rasp/src/hardware/startup/lib/arm/a.le\libstartup.a(armv_pte_xsc3.o)
 .bss           0x00000144        0x0 D:/Study/Raspberry/QNX/ide-4.7-workspace/Bsp_Rasp/src/hardware/startup/lib/arm/a.le\libstartup.a(armv_setup_1136.o)
 .bss           0x00000144        0x0 D:/Study/Raspberry/QNX/ide-4.7-workspace/Bsp_Rasp/src/hardware/startup/lib/arm/a.le\libstartup.a(armv_setup_a15.o)
 .bss           0x00000144        0x0 D:/Study/Raspberry/QNX/ide-4.7-workspace/Bsp_Rasp/src/hardware/startup/lib/arm/a.le\libstartup.a(armv_setup_a8.o)
 .bss           0x00000144        0x0 D:/Study/Raspberry/QNX/ide-4.7-workspace/Bsp_Rasp/src/hardware/startup/lib/arm/a.le\libstartup.a(armv_setup_mp11.o)
 .bss           0x00000144        0x0 D:/Study/Raspberry/QNX/ide-4.7-workspace/Bsp_Rasp/src/hardware/startup/lib/arm/a.le\libstartup.a(armv_setup_v6.o)
 .bss           0x00000144        0x0 D:/Study/Raspberry/QNX/ide-4.7-workspace/Bsp_Rasp/src/hardware/startup/lib/arm/a.le\libstartup.a(armv_setup_v7.o)
 .bss           0x00000144        0x0 D:/Study/Raspberry/QNX/ide-4.7-workspace/Bsp_Rasp/src/hardware/startup/lib/arm/a.le\libstartup.a(armv_setup_xscale.o)
 .bss           0x00000144        0x0 D:/Study/Raspberry/QNX/ide-4.7-workspace/Bsp_Rasp/src/hardware/startup/lib/arm/a.le\libstartup.a(board_cpu_startnext.o)
 .bss           0x00000144        0x0 D:/Study/Raspberry/QNX/ide-4.7-workspace/Bsp_Rasp/src/hardware/startup/lib/arm/a.le\libstartup.a(callout_page_1020.o)
 .bss           0x00000144        0x0 D:/Study/Raspberry/QNX/ide-4.7-workspace/Bsp_Rasp/src/hardware/startup/lib/arm/a.le\libstartup.a(callout_page_1136.o)
 .bss           0x00000144        0x0 D:/Study/Raspberry/QNX/ide-4.7-workspace/Bsp_Rasp/src/hardware/startup/lib/arm/a.le\libstartup.a(callout_page_720.o)
 .bss           0x00000144        0x0 D:/Study/Raspberry/QNX/ide-4.7-workspace/Bsp_Rasp/src/hardware/startup/lib/arm/a.le\libstartup.a(callout_page_920.o)
 .bss           0x00000144        0x0 D:/Study/Raspberry/QNX/ide-4.7-workspace/Bsp_Rasp/src/hardware/startup/lib/arm/a.le\libstartup.a(callout_page_925.o)
 .bss           0x00000144        0x0 D:/Study/Raspberry/QNX/ide-4.7-workspace/Bsp_Rasp/src/hardware/startup/lib/arm/a.le\libstartup.a(callout_page_a15.o)
 .bss           0x00000144        0x0 D:/Study/Raspberry/QNX/ide-4.7-workspace/Bsp_Rasp/src/hardware/startup/lib/arm/a.le\libstartup.a(callout_page_a8.o)
 .bss           0x00000144        0x0 D:/Study/Raspberry/QNX/ide-4.7-workspace/Bsp_Rasp/src/hardware/startup/lib/arm/a.le\libstartup.a(callout_page_mp11.o)
 .bss           0x00000144        0x0 D:/Study/Raspberry/QNX/ide-4.7-workspace/Bsp_Rasp/src/hardware/startup/lib/arm/a.le\libstartup.a(callout_page_sa.o)
 .bss           0x00000144        0x0 D:/Study/Raspberry/QNX/ide-4.7-workspace/Bsp_Rasp/src/hardware/startup/lib/arm/a.le\libstartup.a(callout_page_xsc3.o)
 .bss           0x00000144        0x0 D:/Study/Raspberry/QNX/ide-4.7-workspace/Bsp_Rasp/src/hardware/startup/lib/arm/a.le\libstartup.a(callout_page_xscale.o)
 .bss           0x00000144        0x0 D:/Study/Raspberry/QNX/ide-4.7-workspace/Bsp_Rasp/src/hardware/startup/lib/arm/a.le\libstartup.a(callout_power_926.o)
 .bss           0x00000144        0x0 D:/Study/Raspberry/QNX/ide-4.7-workspace/Bsp_Rasp/src/hardware/startup/lib/arm/a.le\libstartup.a(callout_power_cp15_wfi.o)
 .bss           0x00000144        0x0 D:/Study/Raspberry/QNX/ide-4.7-workspace/Bsp_Rasp/src/hardware/startup/lib/arm/a.le\libstartup.a(callout_power_sa1100.o)
 .bss           0x00000144        0x0 D:/Study/Raspberry/QNX/ide-4.7-workspace/Bsp_Rasp/src/hardware/startup/lib/arm/a.le\libstartup.a(callout_power_v7_wfi.o)
 .bss           0x00000144        0x0 D:/Study/Raspberry/QNX/ide-4.7-workspace/Bsp_Rasp/src/hardware/startup/lib/arm/a.le\libstartup.a(callout_power_xscale.o)
 .bss           0x00000144        0x0 D:/Study/Raspberry/QNX/ide-4.7-workspace/Bsp_Rasp/src/hardware/startup/lib/arm/a.le\libstartup.a(vstart_v6.o)
 .bss           0x00000144        0x0 D:/Study/Raspberry/QNX/ide-4.7-workspace/Bsp_Rasp/src/hardware/startup/lib/arm/a.le\libstartup.a(vstart_v7.o)
 .bss           0x00000144        0x0 D:/Study/Raspberry/QNX/ide-4.7-workspace/Bsp_Rasp/src/hardware/startup/lib/arm/a.le\libstartup.a(arm_gic.o)
 .bss           0x00000144        0x0 D:/Study/Raspberry/QNX/ide-4.7-workspace/Bsp_Rasp/src/hardware/startup/lib/arm/a.le\libstartup.a(armv_cache_1020.o)
 .bss           0x00000144        0x0 D:/Study/Raspberry/QNX/ide-4.7-workspace/Bsp_Rasp/src/hardware/startup/lib/arm/a.le\libstartup.a(armv_cache_1136.o)
 .bss           0x00000144        0x0 D:/Study/Raspberry/QNX/ide-4.7-workspace/Bsp_Rasp/src/hardware/startup/lib/arm/a.le\libstartup.a(armv_cache_720.o)
 .bss           0x00000144        0x0 D:/Study/Raspberry/QNX/ide-4.7-workspace/Bsp_Rasp/src/hardware/startup/lib/arm/a.le\libstartup.a(armv_cache_920.o)
 .bss           0x00000144        0x0 D:/Study/Raspberry/QNX/ide-4.7-workspace/Bsp_Rasp/src/hardware/startup/lib/arm/a.le\libstartup.a(armv_cache_925.o)
 .bss           0x00000144        0x0 D:/Study/Raspberry/QNX/ide-4.7-workspace/Bsp_Rasp/src/hardware/startup/lib/arm/a.le\libstartup.a(armv_cache_926.o)
 .bss           0x00000144        0x0 D:/Study/Raspberry/QNX/ide-4.7-workspace/Bsp_Rasp/src/hardware/startup/lib/arm/a.le\libstartup.a(armv_cache_a15.o)
 .bss           0x00000144        0x0 D:/Study/Raspberry/QNX/ide-4.7-workspace/Bsp_Rasp/src/hardware/startup/lib/arm/a.le\libstartup.a(armv_cache_a8.o)
 .bss           0x00000144        0x0 D:/Study/Raspberry/QNX/ide-4.7-workspace/Bsp_Rasp/src/hardware/startup/lib/arm/a.le\libstartup.a(armv_cache_mp11.o)
 .bss           0x00000144        0x0 D:/Study/Raspberry/QNX/ide-4.7-workspace/Bsp_Rasp/src/hardware/startup/lib/arm/a.le\libstartup.a(armv_cache_sa1100.o)
 .bss           0x00000144        0x0 D:/Study/Raspberry/QNX/ide-4.7-workspace/Bsp_Rasp/src/hardware/startup/lib/arm/a.le\libstartup.a(armv_cache_xsc3.o)
 .bss           0x00000144        0x0 D:/Study/Raspberry/QNX/ide-4.7-workspace/Bsp_Rasp/src/hardware/startup/lib/arm/a.le\libstartup.a(armv_cache_xscale.o)
 .bss           0x00000144        0x0 D:/Study/Raspberry/QNX/ide-4.7-workspace/Bsp_Rasp/src/hardware/startup/lib/arm/a.le\libstartup.a(armv_chip_a9mp.o)
 .bss           0x00000144        0x0 D:/Study/Raspberry/QNX/ide-4.7-workspace/Bsp_Rasp/src/hardware/startup/lib/arm/a.le\libstartup.a(armv_chip_a9up.o)
 .bss           0x00000144        0x0 D:/Study/Raspberry/QNX/ide-4.7-workspace/Bsp_Rasp/src/hardware/startup/lib/arm/a.le\libstartup.a(armv_chip_sheeva_v6.o)
 .bss           0x00000144        0x0 D:/Study/Raspberry/QNX/ide-4.7-workspace/Bsp_Rasp/src/hardware/startup/lib/arm/a.le\libstartup.a(armv_chip_sheeva_v7.o)
 .bss           0x00000144        0x0 D:/Study/Raspberry/QNX/ide-4.7-workspace/Bsp_Rasp/src/hardware/startup/lib/arm/a.le\libstartup.a(armv_pte_v6wa.o)
 .bss           0x00000144        0x0 D:/Study/Raspberry/QNX/ide-4.7-workspace/Bsp_Rasp/src/hardware/startup/lib/arm/a.le\libstartup.a(armv_setup_a9mp.o)
 .bss           0x00000144        0x0 D:/Study/Raspberry/QNX/ide-4.7-workspace/Bsp_Rasp/src/hardware/startup/lib/arm/a.le\libstartup.a(armv_setup_a9up.o)
 .bss           0x00000144        0x0 D:/Study/Raspberry/QNX/ide-4.7-workspace/Bsp_Rasp/src/hardware/startup/lib/arm/a.le\libstartup.a(armv_setup_sheeva_v6.o)
 .bss           0x00000144        0x0 D:/Study/Raspberry/QNX/ide-4.7-workspace/Bsp_Rasp/src/hardware/startup/lib/arm/a.le\libstartup.a(armv_setup_sheeva_v7.o)
 .bss           0x00000144        0x0 D:/Study/Raspberry/QNX/ide-4.7-workspace/Bsp_Rasp/src/hardware/startup/lib/arm/a.le\libstartup.a(callout_cache_1020.o)
 .bss           0x00000144        0x0 D:/Study/Raspberry/QNX/ide-4.7-workspace/Bsp_Rasp/src/hardware/startup/lib/arm/a.le\libstartup.a(callout_cache_1136.o)
 .bss           0x00000144        0x0 D:/Study/Raspberry/QNX/ide-4.7-workspace/Bsp_Rasp/src/hardware/startup/lib/arm/a.le\libstartup.a(callout_cache_720.o)
 .bss           0x00000144        0x0 D:/Study/Raspberry/QNX/ide-4.7-workspace/Bsp_Rasp/src/hardware/startup/lib/arm/a.le\libstartup.a(callout_cache_920.o)
 .bss           0x00000144        0x0 D:/Study/Raspberry/QNX/ide-4.7-workspace/Bsp_Rasp/src/hardware/startup/lib/arm/a.le\libstartup.a(callout_cache_925.o)
 .bss           0x00000144        0x0 D:/Study/Raspberry/QNX/ide-4.7-workspace/Bsp_Rasp/src/hardware/startup/lib/arm/a.le\libstartup.a(callout_cache_926.o)
 .bss           0x00000144        0x0 D:/Study/Raspberry/QNX/ide-4.7-workspace/Bsp_Rasp/src/hardware/startup/lib/arm/a.le\libstartup.a(callout_cache_a15.o)
 .bss           0x00000144        0x0 D:/Study/Raspberry/QNX/ide-4.7-workspace/Bsp_Rasp/src/hardware/startup/lib/arm/a.le\libstartup.a(callout_cache_a8.o)
 .bss           0x00000144        0x0 D:/Study/Raspberry/QNX/ide-4.7-workspace/Bsp_Rasp/src/hardware/startup/lib/arm/a.le\libstartup.a(callout_cache_mp11.o)
 .bss           0x00000144        0x0 D:/Study/Raspberry/QNX/ide-4.7-workspace/Bsp_Rasp/src/hardware/startup/lib/arm/a.le\libstartup.a(callout_cache_sa.o)
 .bss           0x00000144        0x0 D:/Study/Raspberry/QNX/ide-4.7-workspace/Bsp_Rasp/src/hardware/startup/lib/arm/a.le\libstartup.a(callout_cache_xsc3.o)
 .bss           0x00000144        0x0 D:/Study/Raspberry/QNX/ide-4.7-workspace/Bsp_Rasp/src/hardware/startup/lib/arm/a.le\libstartup.a(callout_cache_xscale.o)
 .bss           0x00000144        0x0 D:/Study/Raspberry/QNX/ide-4.7-workspace/Bsp_Rasp/src/hardware/startup/lib/arm/a.le\libstartup.a(callout_page_a9mp.o)
 .bss           0x00000144        0x0 D:/Study/Raspberry/QNX/ide-4.7-workspace/Bsp_Rasp/src/hardware/startup/lib/arm/a.le\libstartup.a(callout_page_a9up.o)
 .bss           0x00000144        0x0 D:/Study/Raspberry/QNX/ide-4.7-workspace/Bsp_Rasp/src/hardware/startup/lib/arm/a.le\libstartup.a(callout_page_sheeva_v6.o)
 .bss           0x00000144        0x0 D:/Study/Raspberry/QNX/ide-4.7-workspace/Bsp_Rasp/src/hardware/startup/lib/arm/a.le\libstartup.a(callout_page_sheeva_v7.o)
 .bss           0x00000144        0x0 D:/Study/Raspberry/QNX/ide-4.7-workspace/Bsp_Rasp/src/hardware/startup/lib/arm/a.le\libstartup.a(callout_power_sheeva_v6.o)
 .bss           0x00000144        0x0 D:/Study/Raspberry/QNX/ide-4.7-workspace/Bsp_Rasp/src/hardware/startup/lib/arm/a.le\libstartup.a(callout_power_sheeva_v7.o)
 .bss           0x00000144        0x0 D:/Study/Raspberry/QNX/ide-4.7-workspace/Bsp_Rasp/src/hardware/startup/lib/arm/a.le\libstartup.a(armv_cache_a9mp.o)
 .bss           0x00000144        0x0 D:/Study/Raspberry/QNX/ide-4.7-workspace/Bsp_Rasp/src/hardware/startup/lib/arm/a.le\libstartup.a(armv_cache_a9up.o)
 .bss           0x00000144        0x0 D:/Study/Raspberry/QNX/ide-4.7-workspace/Bsp_Rasp/src/hardware/startup/lib/arm/a.le\libstartup.a(armv_cache_sheeva_v6.o)
 .bss           0x00000144        0x0 D:/Study/Raspberry/QNX/ide-4.7-workspace/Bsp_Rasp/src/hardware/startup/lib/arm/a.le\libstartup.a(armv_cache_sheeva_v7.o)
 .bss           0x00000144        0x0 D:/Study/Raspberry/QNX/ide-4.7-workspace/Bsp_Rasp/src/hardware/startup/lib/arm/a.le\libstartup.a(callout_cache_a9mp.o)
 .bss           0x00000144        0x0 D:/Study/Raspberry/QNX/ide-4.7-workspace/Bsp_Rasp/src/hardware/startup/lib/arm/a.le\libstartup.a(callout_cache_a9up.o)
 .bss           0x00000144        0x0 D:/Study/Raspberry/QNX/ide-4.7-workspace/Bsp_Rasp/src/hardware/startup/lib/arm/a.le\libstartup.a(callout_cache_sheeva_v6.o)
 .bss           0x00000144        0x0 D:/Study/Raspberry/QNX/ide-4.7-workspace/Bsp_Rasp/src/hardware/startup/lib/arm/a.le\libstartup.a(callout_cache_sheeva_v7.o)
 .bss           0x00000144        0x0 C:/QNX650/target/qnx6/armle/usr/lib\libucl.a(n2b_d.o)
 .bss           0x00000144        0x0 C:/QNX650/host/win32/x86/usr/lib/gcc/arm-unknown-nto-qnx6.5.0/4.4.2//libgcc.a(_udivsi3.o)
 .bss           0x00000144        0x0 C:/QNX650/host/win32/x86/usr/lib/gcc/arm-unknown-nto-qnx6.5.0/4.4.2//libgcc.a(_dvmd_nto.o)
 .bss           0x00000144        0x0 C:/QNX650/host/win32/x86/usr/lib/gcc/arm-unknown-nto-qnx6.5.0/4.4.2//libgcc.a(_udivdi3.o)
 .bss           0x00000144        0x0 C:/QNX650/host/win32/x86/usr/lib/gcc/arm-unknown-nto-qnx6.5.0/4.4.2//libgcc.a(_umoddi3.o)
 .bss           0x00000144        0x0 C:/QNX650/host/win32/x86/usr/lib/gcc/arm-unknown-nto-qnx6.5.0/4.4.2//libgcc.a(_umodsi3.o)
 .bss           0x00000144        0x0 C:/QNX650/host/win32/x86/usr/lib/gcc/arm-unknown-nto-qnx6.5.0/4.4.2//libgcc.a(_clz.o)
 .bss           0x00000144        0x0 C:/QNX650/target/qnx6/armle/lib\libc.a(hwi_find_item.o)
 .bss           0x00000144        0x0 C:/QNX650/target/qnx6/armle/lib\libc.a(hwi_off2tag.o)
 .bss           0x00000144        0x0 C:/QNX650/target/qnx6/armle/lib\libc.a(hwi_tag2off.o)
 .bss           0x00000144        0x0 C:/QNX650/target/qnx6/armle/lib\libc.a(memcmp.o)
 .bss           0x00000144        0x0 C:/QNX650/target/qnx6/armle/lib\libc.a(memset.o)
 .bss           0x00000144        0x0 C:/QNX650/target/qnx6/armle/lib\libc.a(strchr.o)
 .bss           0x00000144        0x0 C:/QNX650/target/qnx6/armle/lib\libc.a(strcmp.o)
 .bss           0x00000144        0x0 C:/QNX650/target/qnx6/armle/lib\libc.a(strcpy.o)
 .bss           0x00000144        0x0 C:/QNX650/target/qnx6/armle/lib\libc.a(__cpu_flags.o)
 *(COMMON)
 COMMON         0x00000144        0x0 main.o
 COMMON         0x00000144        0x0 D:/Study/Raspberry/QNX/ide-4.7-workspace/Bsp_Rasp/src/hardware/startup/lib/arm/a.le\libstartup.a(_main.o)
 COMMON         0x00000144        0x0 D:/Study/Raspberry/QNX/ide-4.7-workspace/Bsp_Rasp/src/hardware/startup/lib/arm/a.le\libstartup.a(cpu_common_options.o)
 COMMON         0x00000144        0x0 D:/Study/Raspberry/QNX/ide-4.7-workspace/Bsp_Rasp/src/hardware/startup/lib/arm/a.le\libstartup.a(getopt.o)
 COMMON         0x00000144        0x0 D:/Study/Raspberry/QNX/ide-4.7-workspace/Bsp_Rasp/src/hardware/startup/lib/arm/a.le\libstartup.a(init_cpuinfo.o)
 COMMON         0x00000144        0x0 D:/Study/Raspberry/QNX/ide-4.7-workspace/Bsp_Rasp/src/hardware/startup/lib/arm/a.le\libstartup.a(init_mmu.o)
 COMMON         0x00000144        0x0 D:/Study/Raspberry/QNX/ide-4.7-workspace/Bsp_Rasp/src/hardware/startup/lib/arm/a.le\libstartup.a(init_system_private.o)
 COMMON         0x00000144        0x0 D:/Study/Raspberry/QNX/ide-4.7-workspace/Bsp_Rasp/src/hardware/startup/lib/arm/a.le\libstartup.a(restore_ifs.o)
 COMMON         0x00000144        0x0 D:/Study/Raspberry/QNX/ide-4.7-workspace/Bsp_Rasp/src/hardware/startup/lib/arm/a.le\libstartup.a(syspage_memory.o)
 COMMON         0x00000144        0x0 D:/Study/Raspberry/QNX/ide-4.7-workspace/Bsp_Rasp/src/hardware/startup/lib/arm/a.le\libstartup.a(arm_cpuspeed.o)
 COMMON         0x00000144        0x0 D:/Study/Raspberry/QNX/ide-4.7-workspace/Bsp_Rasp/src/hardware/startup/lib/arm/a.le\libstartup.a(arm_pte.o)
 COMMON         0x00000144        0x0 D:/Study/Raspberry/QNX/ide-4.7-workspace/Bsp_Rasp/src/hardware/startup/lib/arm/a.le\libstartup.a(armv_chip_detect.o)
 COMMON         0x00000144        0x0 D:/Study/Raspberry/QNX/ide-4.7-workspace/Bsp_Rasp/src/hardware/startup/lib/arm/a.le\libstartup.a(cpu_startnext.o)
 COMMON         0x00000144        0x0 D:/Study/Raspberry/QNX/ide-4.7-workspace/Bsp_Rasp/src/hardware/startup/lib/arm/a.le\libstartup.a(arm_gic.o)
 COMMON         0x00000144        0x0 C:/QNX650/target/qnx6/armle/lib\libc.a(__cpu_flags.o)

.stab
 *(.stab)

.stabstr
 *(.stabstr)

.stab.excl
 *(.stab.excl)

.stab.exclstr
 *(.stab.exclstr)

.stab.index
 *(.stab.index)

.stab.indexstr
 *(.stab.indexstr)

.comment        0x00000000      0xb88
 *(.comment)
 .comment       0x00000000       0x12 init_asinfo.o
 .comment       0x00000012       0x12 init_hwinfo.o
 .comment       0x00000024       0x12 init_intrinfo.o
 .comment       0x00000036       0x12 init_pio.o
 .comment       0x00000048       0x12 init_qtime_bcm2835.o
 .comment       0x0000005a       0x12 init_raminfo.o
 .comment       0x0000006c       0x12 main.o
 .comment       0x0000007e       0x12 rtc_time.o
 .comment       0x00000090       0x12 D:/Study/Raspberry/QNX/ide-4.7-workspace/Bsp_Rasp/src/hardware/startup/lib/arm/a.le\libstartup.a(_main.o)
 .comment       0x000000a2       0x12 D:/Study/Raspberry/QNX/ide-4.7-workspace/Bsp_Rasp/src/hardware/startup/lib/arm/a.le\libstartup.a(add_interrupt.o)
 .comment       0x000000b4       0x12 D:/Study/Raspberry/QNX/ide-4.7-workspace/Bsp_Rasp/src/hardware/startup/lib/arm/a.le\libstartup.a(alloc_qtime.o)
 .comment       0x000000c6       0x12 D:/Study/Raspberry/QNX/ide-4.7-workspace/Bsp_Rasp/src/hardware/startup/lib/arm/a.le\libstartup.a(board_init.o)
 .comment       0x000000d8       0x12 D:/Study/Raspberry/QNX/ide-4.7-workspace/Bsp_Rasp/src/hardware/startup/lib/arm/a.le\libstartup.a(callouts.o)
 .comment       0x000000ea       0x12 D:/Study/Raspberry/QNX/ide-4.7-workspace/Bsp_Rasp/src/hardware/startup/lib/arm/a.le\libstartup.a(common_options.o)
 .comment       0x000000fc       0x12 D:/Study/Raspberry/QNX/ide-4.7-workspace/Bsp_Rasp/src/hardware/startup/lib/arm/a.le\libstartup.a(cpu_common_options.o)
 .comment       0x0000010e       0x12 D:/Study/Raspberry/QNX/ide-4.7-workspace/Bsp_Rasp/src/hardware/startup/lib/arm/a.le\libstartup.a(cpu_startup.o)
 .comment       0x00000120       0x12 D:/Study/Raspberry/QNX/ide-4.7-workspace/Bsp_Rasp/src/hardware/startup/lib/arm/a.le\libstartup.a(debug.o)
 .comment       0x00000132       0x12 D:/Study/Raspberry/QNX/ide-4.7-workspace/Bsp_Rasp/src/hardware/startup/lib/arm/a.le\libstartup.a(getopt.o)
 .comment       0x00000144       0x12 D:/Study/Raspberry/QNX/ide-4.7-workspace/Bsp_Rasp/src/hardware/startup/lib/arm/a.le\libstartup.a(getsize.o)
 .comment       0x00000156       0x12 D:/Study/Raspberry/QNX/ide-4.7-workspace/Bsp_Rasp/src/hardware/startup/lib/arm/a.le\libstartup.a(hw_serbcm2835debug.o)
 .comment       0x00000168       0x12 D:/Study/Raspberry/QNX/ide-4.7-workspace/Bsp_Rasp/src/hardware/startup/lib/arm/a.le\libstartup.a(hwi_add_nanospin.o)
 .comment       0x0000017a       0x12 D:/Study/Raspberry/QNX/ide-4.7-workspace/Bsp_Rasp/src/hardware/startup/lib/arm/a.le\libstartup.a(hwi_alloc.o)
 .comment       0x0000018c       0x12 D:/Study/Raspberry/QNX/ide-4.7-workspace/Bsp_Rasp/src/hardware/startup/lib/arm/a.le\libstartup.a(init_cacheattr.o)
 .comment       0x0000019e       0x12 D:/Study/Raspberry/QNX/ide-4.7-workspace/Bsp_Rasp/src/hardware/startup/lib/arm/a.le\libstartup.a(init_cpuinfo.o)
 .comment       0x000001b0       0x12 D:/Study/Raspberry/QNX/ide-4.7-workspace/Bsp_Rasp/src/hardware/startup/lib/arm/a.le\libstartup.a(init_mmu.o)
 .comment       0x000001c2       0x12 D:/Study/Raspberry/QNX/ide-4.7-workspace/Bsp_Rasp/src/hardware/startup/lib/arm/a.le\libstartup.a(init_system_private.o)
 .comment       0x000001d4       0x12 D:/Study/Raspberry/QNX/ide-4.7-workspace/Bsp_Rasp/src/hardware/startup/lib/arm/a.le\libstartup.a(jtag.o)
 .comment       0x000001e6       0x12 D:/Study/Raspberry/QNX/ide-4.7-workspace/Bsp_Rasp/src/hardware/startup/lib/arm/a.le\libstartup.a(kprintf.o)
 .comment       0x000001f8       0x12 D:/Study/Raspberry/QNX/ide-4.7-workspace/Bsp_Rasp/src/hardware/startup/lib/arm/a.le\libstartup.a(load_ifs.o)
 .comment       0x0000020a       0x12 D:/Study/Raspberry/QNX/ide-4.7-workspace/Bsp_Rasp/src/hardware/startup/lib/arm/a.le\libstartup.a(map_callout_io.o)
 .comment       0x0000021c       0x12 D:/Study/Raspberry/QNX/ide-4.7-workspace/Bsp_Rasp/src/hardware/startup/lib/arm/a.le\libstartup.a(map_startup_io.o)
 .comment       0x0000022e       0x12 D:/Study/Raspberry/QNX/ide-4.7-workspace/Bsp_Rasp/src/hardware/startup/lib/arm/a.le\libstartup.a(map_startup_mem.o)
 .comment       0x00000240       0x12 D:/Study/Raspberry/QNX/ide-4.7-workspace/Bsp_Rasp/src/hardware/startup/lib/arm/a.le\libstartup.a(memfuncs.o)
 .comment       0x00000252       0x12 D:/Study/Raspberry/QNX/ide-4.7-workspace/Bsp_Rasp/src/hardware/startup/lib/arm/a.le\libstartup.a(memmove.o)
 .comment       0x00000264       0x12 D:/Study/Raspberry/QNX/ide-4.7-workspace/Bsp_Rasp/src/hardware/startup/lib/arm/a.le\libstartup.a(print_sysp.o)
 .comment       0x00000276       0x12 D:/Study/Raspberry/QNX/ide-4.7-workspace/Bsp_Rasp/src/hardware/startup/lib/arm/a.le\libstartup.a(ram.o)
 .comment       0x00000288       0x12 D:/Study/Raspberry/QNX/ide-4.7-workspace/Bsp_Rasp/src/hardware/startup/lib/arm/a.le\libstartup.a(restore_ifs.o)
 .comment       0x0000029a       0x12 D:/Study/Raspberry/QNX/ide-4.7-workspace/Bsp_Rasp/src/hardware/startup/lib/arm/a.le\libstartup.a(rtc_time.o)
 .comment       0x000002ac       0x12 D:/Study/Raspberry/QNX/ide-4.7-workspace/Bsp_Rasp/src/hardware/startup/lib/arm/a.le\libstartup.a(startnext.o)
 .comment       0x000002be       0x12 D:/Study/Raspberry/QNX/ide-4.7-workspace/Bsp_Rasp/src/hardware/startup/lib/arm/a.le\libstartup.a(startup_info.o)
 .comment       0x000002d0       0x12 D:/Study/Raspberry/QNX/ide-4.7-workspace/Bsp_Rasp/src/hardware/startup/lib/arm/a.le\libstartup.a(strings.o)
 .comment       0x000002e2       0x12 D:/Study/Raspberry/QNX/ide-4.7-workspace/Bsp_Rasp/src/hardware/startup/lib/arm/a.le\libstartup.a(strtoul.o)
 .comment       0x000002f4       0x12 D:/Study/Raspberry/QNX/ide-4.7-workspace/Bsp_Rasp/src/hardware/startup/lib/arm/a.le\libstartup.a(syspage_memory.o)
 .comment       0x00000306       0x12 D:/Study/Raspberry/QNX/ide-4.7-workspace/Bsp_Rasp/src/hardware/startup/lib/arm/a.le\libstartup.a(tweak_cmdline.o)
 .comment       0x00000318       0x12 D:/Study/Raspberry/QNX/ide-4.7-workspace/Bsp_Rasp/src/hardware/startup/lib/arm/a.le\libstartup.a(uncompress.o)
 .comment       0x0000032a       0x12 D:/Study/Raspberry/QNX/ide-4.7-workspace/Bsp_Rasp/src/hardware/startup/lib/arm/a.le\libstartup.a(uncompress_ucl.o)
 .comment       0x0000033c       0x12 D:/Study/Raspberry/QNX/ide-4.7-workspace/Bsp_Rasp/src/hardware/startup/lib/arm/a.le\libstartup.a(arm_cache.o)
 .comment       0x0000034e       0x12 D:/Study/Raspberry/QNX/ide-4.7-workspace/Bsp_Rasp/src/hardware/startup/lib/arm/a.le\libstartup.a(arm_cpuspeed.o)
 .comment       0x00000360       0x12 D:/Study/Raspberry/QNX/ide-4.7-workspace/Bsp_Rasp/src/hardware/startup/lib/arm/a.le\libstartup.a(arm_map.o)
 .comment       0x00000372       0x12 D:/Study/Raspberry/QNX/ide-4.7-workspace/Bsp_Rasp/src/hardware/startup/lib/arm/a.le\libstartup.a(arm_pte.o)
 .comment       0x00000384       0x12 D:/Study/Raspberry/QNX/ide-4.7-workspace/Bsp_Rasp/src/hardware/startup/lib/arm/a.le\libstartup.a(armv_chip_detect.o)
 .comment       0x00000396       0x12 D:/Study/Raspberry/QNX/ide-4.7-workspace/Bsp_Rasp/src/hardware/startup/lib/arm/a.le\libstartup.a(armv_list.o)
 .comment       0x000003a8       0x12 D:/Study/Raspberry/QNX/ide-4.7-workspace/Bsp_Rasp/src/hardware/startup/lib/arm/a.le\libstartup.a(as_add.o)
 .comment       0x000003ba       0x12 D:/Study/Raspberry/QNX/ide-4.7-workspace/Bsp_Rasp/src/hardware/startup/lib/arm/a.le\libstartup.a(as_add64.o)
 .comment       0x000003cc       0x12 D:/Study/Raspberry/QNX/ide-4.7-workspace/Bsp_Rasp/src/hardware/startup/lib/arm/a.le\libstartup.a(as_add_containing.o)
 .comment       0x000003de       0x12 D:/Study/Raspberry/QNX/ide-4.7-workspace/Bsp_Rasp/src/hardware/startup/lib/arm/a.le\libstartup.a(as_default.o)
 .comment       0x000003f0       0x12 D:/Study/Raspberry/QNX/ide-4.7-workspace/Bsp_Rasp/src/hardware/startup/lib/arm/a.le\libstartup.a(as_find.o)
 .comment       0x00000402       0x12 D:/Study/Raspberry/QNX/ide-4.7-workspace/Bsp_Rasp/src/hardware/startup/lib/arm/a.le\libstartup.a(as_find_containing.o)
 .comment       0x00000414       0x12 D:/Study/Raspberry/QNX/ide-4.7-workspace/Bsp_Rasp/src/hardware/startup/lib/arm/a.le\libstartup.a(as_off2info.o)
 .comment       0x00000426       0x12 D:/Study/Raspberry/QNX/ide-4.7-workspace/Bsp_Rasp/src/hardware/startup/lib/arm/a.le\libstartup.a(board_cpu_startup.o)
 .comment       0x00000438       0x12 D:/Study/Raspberry/QNX/ide-4.7-workspace/Bsp_Rasp/src/hardware/startup/lib/arm/a.le\libstartup.a(cpu_startnext.o)
 .comment       0x0000044a       0x12 D:/Study/Raspberry/QNX/ide-4.7-workspace/Bsp_Rasp/src/hardware/startup/lib/arm/a.le\libstartup.a(cpu_syspage_memory.o)
 .comment       0x0000045c       0x12 D:/Study/Raspberry/QNX/ide-4.7-workspace/Bsp_Rasp/src/hardware/startup/lib/arm/a.le\libstartup.a(crash_done.o)
 .comment       0x0000046e       0x12 D:/Study/Raspberry/QNX/ide-4.7-workspace/Bsp_Rasp/src/hardware/startup/lib/arm/a.le\libstartup.a(dummy_print_char.o)
 .comment       0x00000480       0x12 D:/Study/Raspberry/QNX/ide-4.7-workspace/Bsp_Rasp/src/hardware/startup/lib/arm/a.le\libstartup.a(elf.o)
 .comment       0x00000492       0x12 D:/Study/Raspberry/QNX/ide-4.7-workspace/Bsp_Rasp/src/hardware/startup/lib/arm/a.le\libstartup.a(elf_map.o)
 .comment       0x000004a4       0x12 D:/Study/Raspberry/QNX/ide-4.7-workspace/Bsp_Rasp/src/hardware/startup/lib/arm/a.le\libstartup.a(hwi_add_device.o)
 .comment       0x000004b6       0x12 D:/Study/Raspberry/QNX/ide-4.7-workspace/Bsp_Rasp/src/hardware/startup/lib/arm/a.le\libstartup.a(hwi_default.o)
 .comment       0x000004c8       0x12 D:/Study/Raspberry/QNX/ide-4.7-workspace/Bsp_Rasp/src/hardware/startup/lib/arm/a.le\libstartup.a(mdriver_max.o)
 .comment       0x000004da       0x12 D:/Study/Raspberry/QNX/ide-4.7-workspace/Bsp_Rasp/src/hardware/startup/lib/arm/a.le\libstartup.a(memcpy.o)
 .comment       0x000004ec       0x12 D:/Study/Raspberry/QNX/ide-4.7-workspace/Bsp_Rasp/src/hardware/startup/lib/arm/a.le\libstartup.a(timer_ns2tick.o)
 .comment       0x000004fe       0x12 D:/Study/Raspberry/QNX/ide-4.7-workspace/Bsp_Rasp/src/hardware/startup/lib/arm/a.le\libstartup.a(timer_tick2ns.o)
 .comment       0x00000510       0x12 D:/Study/Raspberry/QNX/ide-4.7-workspace/Bsp_Rasp/src/hardware/startup/lib/arm/a.le\libstartup.a(add_cache.o)
 .comment       0x00000522       0x12 D:/Study/Raspberry/QNX/ide-4.7-workspace/Bsp_Rasp/src/hardware/startup/lib/arm/a.le\libstartup.a(armv_chip_1020.o)
 .comment       0x00000534       0x12 D:/Study/Raspberry/QNX/ide-4.7-workspace/Bsp_Rasp/src/hardware/startup/lib/arm/a.le\libstartup.a(armv_chip_1022.o)
 .comment       0x00000546       0x12 D:/Study/Raspberry/QNX/ide-4.7-workspace/Bsp_Rasp/src/hardware/startup/lib/arm/a.le\libstartup.a(armv_chip_1136.o)
 .comment       0x00000558       0x12 D:/Study/Raspberry/QNX/ide-4.7-workspace/Bsp_Rasp/src/hardware/startup/lib/arm/a.le\libstartup.a(armv_chip_1176.o)
 .comment       0x0000056a       0x12 D:/Study/Raspberry/QNX/ide-4.7-workspace/Bsp_Rasp/src/hardware/startup/lib/arm/a.le\libstartup.a(armv_chip_1200.o)
 .comment       0x0000057c       0x12 D:/Study/Raspberry/QNX/ide-4.7-workspace/Bsp_Rasp/src/hardware/startup/lib/arm/a.le\libstartup.a(armv_chip_23xx.o)
 .comment       0x0000058e       0x12 D:/Study/Raspberry/QNX/ide-4.7-workspace/Bsp_Rasp/src/hardware/startup/lib/arm/a.le\libstartup.a(armv_chip_2400.o)
 .comment       0x000005a0       0x12 D:/Study/Raspberry/QNX/ide-4.7-workspace/Bsp_Rasp/src/hardware/startup/lib/arm/a.le\libstartup.a(armv_chip_2800.o)
 .comment       0x000005b2       0x12 D:/Study/Raspberry/QNX/ide-4.7-workspace/Bsp_Rasp/src/hardware/startup/lib/arm/a.le\libstartup.a(armv_chip_425.o)
 .comment       0x000005c4       0x12 D:/Study/Raspberry/QNX/ide-4.7-workspace/Bsp_Rasp/src/hardware/startup/lib/arm/a.le\libstartup.a(armv_chip_465.o)
 .comment       0x000005d6       0x12 D:/Study/Raspberry/QNX/ide-4.7-workspace/Bsp_Rasp/src/hardware/startup/lib/arm/a.le\libstartup.a(armv_chip_720.o)
 .comment       0x000005e8       0x12 D:/Study/Raspberry/QNX/ide-4.7-workspace/Bsp_Rasp/src/hardware/startup/lib/arm/a.le\libstartup.a(armv_chip_80200.o)
 .comment       0x000005fa       0x12 D:/Study/Raspberry/QNX/ide-4.7-workspace/Bsp_Rasp/src/hardware/startup/lib/arm/a.le\libstartup.a(armv_chip_920.o)
 .comment       0x0000060c       0x12 D:/Study/Raspberry/QNX/ide-4.7-workspace/Bsp_Rasp/src/hardware/startup/lib/arm/a.le\libstartup.a(armv_chip_922.o)
 .comment       0x0000061e       0x12 D:/Study/Raspberry/QNX/ide-4.7-workspace/Bsp_Rasp/src/hardware/startup/lib/arm/a.le\libstartup.a(armv_chip_925.o)
 .comment       0x00000630       0x12 D:/Study/Raspberry/QNX/ide-4.7-workspace/Bsp_Rasp/src/hardware/startup/lib/arm/a.le\libstartup.a(armv_chip_926.o)
 .comment       0x00000642       0x12 D:/Study/Raspberry/QNX/ide-4.7-workspace/Bsp_Rasp/src/hardware/startup/lib/arm/a.le\libstartup.a(armv_chip_a15.o)
 .comment       0x00000654       0x12 D:/Study/Raspberry/QNX/ide-4.7-workspace/Bsp_Rasp/src/hardware/startup/lib/arm/a.le\libstartup.a(armv_chip_a8.o)
 .comment       0x00000666       0x12 D:/Study/Raspberry/QNX/ide-4.7-workspace/Bsp_Rasp/src/hardware/startup/lib/arm/a.le\libstartup.a(armv_chip_a9.o)
 .comment       0x00000678       0x12 D:/Study/Raspberry/QNX/ide-4.7-workspace/Bsp_Rasp/src/hardware/startup/lib/arm/a.le\libstartup.a(armv_chip_mp11.o)
 .comment       0x0000068a       0x12 D:/Study/Raspberry/QNX/ide-4.7-workspace/Bsp_Rasp/src/hardware/startup/lib/arm/a.le\libstartup.a(armv_chip_pxa210b.o)
 .comment       0x0000069c       0x12 D:/Study/Raspberry/QNX/ide-4.7-workspace/Bsp_Rasp/src/hardware/startup/lib/arm/a.le\libstartup.a(armv_chip_pxa210c.o)
 .comment       0x000006ae       0x12 D:/Study/Raspberry/QNX/ide-4.7-workspace/Bsp_Rasp/src/hardware/startup/lib/arm/a.le\libstartup.a(armv_chip_pxa250a.o)
 .comment       0x000006c0       0x12 D:/Study/Raspberry/QNX/ide-4.7-workspace/Bsp_Rasp/src/hardware/startup/lib/arm/a.le\libstartup.a(armv_chip_pxa250b.o)
 .comment       0x000006d2       0x12 D:/Study/Raspberry/QNX/ide-4.7-workspace/Bsp_Rasp/src/hardware/startup/lib/arm/a.le\libstartup.a(armv_chip_pxa255.o)
 .comment       0x000006e4       0x12 D:/Study/Raspberry/QNX/ide-4.7-workspace/Bsp_Rasp/src/hardware/startup/lib/arm/a.le\libstartup.a(armv_chip_pxa270.o)
 .comment       0x000006f6       0x12 D:/Study/Raspberry/QNX/ide-4.7-workspace/Bsp_Rasp/src/hardware/startup/lib/arm/a.le\libstartup.a(armv_chip_sa1100.o)
 .comment       0x00000708       0x12 D:/Study/Raspberry/QNX/ide-4.7-workspace/Bsp_Rasp/src/hardware/startup/lib/arm/a.le\libstartup.a(armv_chip_sa1110.o)
 .comment       0x0000071a       0x12 D:/Study/Raspberry/QNX/ide-4.7-workspace/Bsp_Rasp/src/hardware/startup/lib/arm/a.le\libstartup.a(armv_chip_sheeva.o)
 .comment       0x0000072c       0x12 D:/Study/Raspberry/QNX/ide-4.7-workspace/Bsp_Rasp/src/hardware/startup/lib/arm/a.le\libstartup.a(armv_detect_a9.o)
 .comment       0x0000073e       0x12 D:/Study/Raspberry/QNX/ide-4.7-workspace/Bsp_Rasp/src/hardware/startup/lib/arm/a.le\libstartup.a(armv_detect_sheeva.o)
 .comment       0x00000750       0x12 D:/Study/Raspberry/QNX/ide-4.7-workspace/Bsp_Rasp/src/hardware/startup/lib/arm/a.le\libstartup.a(armv_pte_ixp2xxx.o)
 .comment       0x00000762       0x12 D:/Study/Raspberry/QNX/ide-4.7-workspace/Bsp_Rasp/src/hardware/startup/lib/arm/a.le\libstartup.a(armv_pte_v4wb.o)
 .comment       0x00000774       0x12 D:/Study/Raspberry/QNX/ide-4.7-workspace/Bsp_Rasp/src/hardware/startup/lib/arm/a.le\libstartup.a(armv_pte_v4wt.o)
 .comment       0x00000786       0x12 D:/Study/Raspberry/QNX/ide-4.7-workspace/Bsp_Rasp/src/hardware/startup/lib/arm/a.le\libstartup.a(armv_pte_v5wa.o)
 .comment       0x00000798       0x12 D:/Study/Raspberry/QNX/ide-4.7-workspace/Bsp_Rasp/src/hardware/startup/lib/arm/a.le\libstartup.a(armv_pte_v5wb.o)
 .comment       0x000007aa       0x12 D:/Study/Raspberry/QNX/ide-4.7-workspace/Bsp_Rasp/src/hardware/startup/lib/arm/a.le\libstartup.a(armv_pte_v5wt.o)
 .comment       0x000007bc       0x12 D:/Study/Raspberry/QNX/ide-4.7-workspace/Bsp_Rasp/src/hardware/startup/lib/arm/a.le\libstartup.a(armv_pte_v6mp.o)
 .comment       0x000007ce       0x12 D:/Study/Raspberry/QNX/ide-4.7-workspace/Bsp_Rasp/src/hardware/startup/lib/arm/a.le\libstartup.a(armv_pte_v6wb.o)
 .comment       0x000007e0       0x12 D:/Study/Raspberry/QNX/ide-4.7-workspace/Bsp_Rasp/src/hardware/startup/lib/arm/a.le\libstartup.a(armv_pte_v6wt.o)
 .comment       0x000007f2       0x12 D:/Study/Raspberry/QNX/ide-4.7-workspace/Bsp_Rasp/src/hardware/startup/lib/arm/a.le\libstartup.a(armv_pte_v7mp.o)
 .comment       0x00000804       0x12 D:/Study/Raspberry/QNX/ide-4.7-workspace/Bsp_Rasp/src/hardware/startup/lib/arm/a.le\libstartup.a(armv_pte_v7wa.o)
 .comment       0x00000816       0x12 D:/Study/Raspberry/QNX/ide-4.7-workspace/Bsp_Rasp/src/hardware/startup/lib/arm/a.le\libstartup.a(armv_pte_v7wb.o)
 .comment       0x00000828       0x12 D:/Study/Raspberry/QNX/ide-4.7-workspace/Bsp_Rasp/src/hardware/startup/lib/arm/a.le\libstartup.a(armv_pte_v7wt.o)
 .comment       0x0000083a       0x12 D:/Study/Raspberry/QNX/ide-4.7-workspace/Bsp_Rasp/src/hardware/startup/lib/arm/a.le\libstartup.a(armv_pte_xsc3.o)
 .comment       0x0000084c       0x12 D:/Study/Raspberry/QNX/ide-4.7-workspace/Bsp_Rasp/src/hardware/startup/lib/arm/a.le\libstartup.a(armv_setup_1136.o)
 .comment       0x0000085e       0x12 D:/Study/Raspberry/QNX/ide-4.7-workspace/Bsp_Rasp/src/hardware/startup/lib/arm/a.le\libstartup.a(armv_setup_a15.o)
 .comment       0x00000870       0x12 D:/Study/Raspberry/QNX/ide-4.7-workspace/Bsp_Rasp/src/hardware/startup/lib/arm/a.le\libstartup.a(armv_setup_a8.o)
 .comment       0x00000882       0x12 D:/Study/Raspberry/QNX/ide-4.7-workspace/Bsp_Rasp/src/hardware/startup/lib/arm/a.le\libstartup.a(armv_setup_mp11.o)
 .comment       0x00000894       0x12 D:/Study/Raspberry/QNX/ide-4.7-workspace/Bsp_Rasp/src/hardware/startup/lib/arm/a.le\libstartup.a(armv_setup_v6.o)
 .comment       0x000008a6       0x12 D:/Study/Raspberry/QNX/ide-4.7-workspace/Bsp_Rasp/src/hardware/startup/lib/arm/a.le\libstartup.a(armv_setup_v7.o)
 .comment       0x000008b8       0x12 D:/Study/Raspberry/QNX/ide-4.7-workspace/Bsp_Rasp/src/hardware/startup/lib/arm/a.le\libstartup.a(armv_setup_xscale.o)
 .comment       0x000008ca       0x12 D:/Study/Raspberry/QNX/ide-4.7-workspace/Bsp_Rasp/src/hardware/startup/lib/arm/a.le\libstartup.a(board_cpu_startnext.o)
 .comment       0x000008dc       0x12 D:/Study/Raspberry/QNX/ide-4.7-workspace/Bsp_Rasp/src/hardware/startup/lib/arm/a.le\libstartup.a(arm_gic.o)
 .comment       0x000008ee       0x12 D:/Study/Raspberry/QNX/ide-4.7-workspace/Bsp_Rasp/src/hardware/startup/lib/arm/a.le\libstartup.a(armv_cache_1020.o)
 .comment       0x00000900       0x12 D:/Study/Raspberry/QNX/ide-4.7-workspace/Bsp_Rasp/src/hardware/startup/lib/arm/a.le\libstartup.a(armv_cache_1136.o)
 .comment       0x00000912       0x12 D:/Study/Raspberry/QNX/ide-4.7-workspace/Bsp_Rasp/src/hardware/startup/lib/arm/a.le\libstartup.a(armv_cache_720.o)
 .comment       0x00000924       0x12 D:/Study/Raspberry/QNX/ide-4.7-workspace/Bsp_Rasp/src/hardware/startup/lib/arm/a.le\libstartup.a(armv_cache_920.o)
 .comment       0x00000936       0x12 D:/Study/Raspberry/QNX/ide-4.7-workspace/Bsp_Rasp/src/hardware/startup/lib/arm/a.le\libstartup.a(armv_cache_925.o)
 .comment       0x00000948       0x12 D:/Study/Raspberry/QNX/ide-4.7-workspace/Bsp_Rasp/src/hardware/startup/lib/arm/a.le\libstartup.a(armv_cache_926.o)
 .comment       0x0000095a       0x12 D:/Study/Raspberry/QNX/ide-4.7-workspace/Bsp_Rasp/src/hardware/startup/lib/arm/a.le\libstartup.a(armv_cache_a15.o)
 .comment       0x0000096c       0x12 D:/Study/Raspberry/QNX/ide-4.7-workspace/Bsp_Rasp/src/hardware/startup/lib/arm/a.le\libstartup.a(armv_cache_a8.o)
 .comment       0x0000097e       0x12 D:/Study/Raspberry/QNX/ide-4.7-workspace/Bsp_Rasp/src/hardware/startup/lib/arm/a.le\libstartup.a(armv_cache_mp11.o)
 .comment       0x00000990       0x12 D:/Study/Raspberry/QNX/ide-4.7-workspace/Bsp_Rasp/src/hardware/startup/lib/arm/a.le\libstartup.a(armv_cache_sa1100.o)
 .comment       0x000009a2       0x12 D:/Study/Raspberry/QNX/ide-4.7-workspace/Bsp_Rasp/src/hardware/startup/lib/arm/a.le\libstartup.a(armv_cache_xsc3.o)
 .comment       0x000009b4       0x12 D:/Study/Raspberry/QNX/ide-4.7-workspace/Bsp_Rasp/src/hardware/startup/lib/arm/a.le\libstartup.a(armv_cache_xscale.o)
 .comment       0x000009c6       0x12 D:/Study/Raspberry/QNX/ide-4.7-workspace/Bsp_Rasp/src/hardware/startup/lib/arm/a.le\libstartup.a(armv_chip_a9mp.o)
 .comment       0x000009d8       0x12 D:/Study/Raspberry/QNX/ide-4.7-workspace/Bsp_Rasp/src/hardware/startup/lib/arm/a.le\libstartup.a(armv_chip_a9up.o)
 .comment       0x000009ea       0x12 D:/Study/Raspberry/QNX/ide-4.7-workspace/Bsp_Rasp/src/hardware/startup/lib/arm/a.le\libstartup.a(armv_chip_sheeva_v6.o)
 .comment       0x000009fc       0x12 D:/Study/Raspberry/QNX/ide-4.7-workspace/Bsp_Rasp/src/hardware/startup/lib/arm/a.le\libstartup.a(armv_chip_sheeva_v7.o)
 .comment       0x00000a0e       0x12 D:/Study/Raspberry/QNX/ide-4.7-workspace/Bsp_Rasp/src/hardware/startup/lib/arm/a.le\libstartup.a(armv_pte_v6wa.o)
 .comment       0x00000a20       0x12 D:/Study/Raspberry/QNX/ide-4.7-workspace/Bsp_Rasp/src/hardware/startup/lib/arm/a.le\libstartup.a(armv_setup_a9mp.o)
 .comment       0x00000a32       0x12 D:/Study/Raspberry/QNX/ide-4.7-workspace/Bsp_Rasp/src/hardware/startup/lib/arm/a.le\libstartup.a(armv_setup_a9up.o)
 .comment       0x00000a44       0x12 D:/Study/Raspberry/QNX/ide-4.7-workspace/Bsp_Rasp/src/hardware/startup/lib/arm/a.le\libstartup.a(armv_setup_sheeva_v6.o)
 .comment       0x00000a56       0x12 D:/Study/Raspberry/QNX/ide-4.7-workspace/Bsp_Rasp/src/hardware/startup/lib/arm/a.le\libstartup.a(armv_setup_sheeva_v7.o)
 .comment       0x00000a68       0x12 D:/Study/Raspberry/QNX/ide-4.7-workspace/Bsp_Rasp/src/hardware/startup/lib/arm/a.le\libstartup.a(armv_cache_a9mp.o)
 .comment       0x00000a7a       0x12 D:/Study/Raspberry/QNX/ide-4.7-workspace/Bsp_Rasp/src/hardware/startup/lib/arm/a.le\libstartup.a(armv_cache_a9up.o)
 .comment       0x00000a8c       0x12 D:/Study/Raspberry/QNX/ide-4.7-workspace/Bsp_Rasp/src/hardware/startup/lib/arm/a.le\libstartup.a(armv_cache_sheeva_v6.o)
 .comment       0x00000a9e       0x12 D:/Study/Raspberry/QNX/ide-4.7-workspace/Bsp_Rasp/src/hardware/startup/lib/arm/a.le\libstartup.a(armv_cache_sheeva_v7.o)
 .comment       0x00000ab0       0x12 C:/QNX650/target/qnx6/armle/usr/lib\libucl.a(n2b_d.o)
 .comment       0x00000ac2       0x12 C:/QNX650/host/win32/x86/usr/lib/gcc/arm-unknown-nto-qnx6.5.0/4.4.2//libgcc.a(_udivdi3.o)
 .comment       0x00000ad4       0x12 C:/QNX650/host/win32/x86/usr/lib/gcc/arm-unknown-nto-qnx6.5.0/4.4.2//libgcc.a(_umoddi3.o)
 .comment       0x00000ae6       0x12 C:/QNX650/host/win32/x86/usr/lib/gcc/arm-unknown-nto-qnx6.5.0/4.4.2//libgcc.a(_clz.o)
 .comment       0x00000af8       0x12 C:/QNX650/target/qnx6/armle/lib\libc.a(hwi_find_item.o)
 .comment       0x00000b0a       0x12 C:/QNX650/target/qnx6/armle/lib\libc.a(hwi_off2tag.o)
 .comment       0x00000b1c       0x12 C:/QNX650/target/qnx6/armle/lib\libc.a(hwi_tag2off.o)
 .comment       0x00000b2e       0x12 C:/QNX650/target/qnx6/armle/lib\libc.a(memcmp.o)
 .comment       0x00000b40       0x12 C:/QNX650/target/qnx6/armle/lib\libc.a(strchr.o)
 .comment       0x00000b52       0x12 C:/QNX650/target/qnx6/armle/lib\libc.a(strcmp.o)
 .comment       0x00000b64       0x12 C:/QNX650/target/qnx6/armle/lib\libc.a(strcpy.o)
 .comment       0x00000b76       0x12 C:/QNX650/target/qnx6/armle/lib\libc.a(__cpu_flags.o)

.debug
 *(.debug)

.line
 *(.line)

.debug_srcinfo
 *(.debug_srcinfo)

.debug_sfnames
 *(.debug_sfnames)

.debug_aranges  0x00000000       0x40
 *(.debug_aranges)
 .debug_aranges
                0x00000000       0x20 C:/QNX650/host/win32/x86/usr/lib/gcc/arm-unknown-nto-qnx6.5.0/4.4.2//libgcc.a(_udivdi3.o)
 .debug_aranges
                0x00000020       0x20 C:/QNX650/host/win32/x86/usr/lib/gcc/arm-unknown-nto-qnx6.5.0/4.4.2//libgcc.a(_umoddi3.o)

.debug_pubnames
                0x00000000       0x60
 *(.debug_pubnames)
 .debug_pubnames
                0x00000000       0x20 C:/QNX650/host/win32/x86/usr/lib/gcc/arm-unknown-nto-qnx6.5.0/4.4.2//libgcc.a(_udivdi3.o)
 .debug_pubnames
                0x00000020       0x20 C:/QNX650/host/win32/x86/usr/lib/gcc/arm-unknown-nto-qnx6.5.0/4.4.2//libgcc.a(_umoddi3.o)
 .debug_pubnames
                0x00000040       0x20 C:/QNX650/host/win32/x86/usr/lib/gcc/arm-unknown-nto-qnx6.5.0/4.4.2//libgcc.a(_clz.o)

.debug_info     0x00000000      0xd86
 *(.debug_info)
 .debug_info    0x00000000      0x66b C:/QNX650/host/win32/x86/usr/lib/gcc/arm-unknown-nto-qnx6.5.0/4.4.2//libgcc.a(_udivdi3.o)
 .debug_info    0x0000066b      0x656 C:/QNX650/host/win32/x86/usr/lib/gcc/arm-unknown-nto-qnx6.5.0/4.4.2//libgcc.a(_umoddi3.o)
 .debug_info    0x00000cc1       0xc5 C:/QNX650/host/win32/x86/usr/lib/gcc/arm-unknown-nto-qnx6.5.0/4.4.2//libgcc.a(_clz.o)

.debug_abbrev   0x00000000      0x377
 *(.debug_abbrev)
 .debug_abbrev  0x00000000      0x17f C:/QNX650/host/win32/x86/usr/lib/gcc/arm-unknown-nto-qnx6.5.0/4.4.2//libgcc.a(_udivdi3.o)
 .debug_abbrev  0x0000017f      0x18e C:/QNX650/host/win32/x86/usr/lib/gcc/arm-unknown-nto-qnx6.5.0/4.4.2//libgcc.a(_umoddi3.o)
 .debug_abbrev  0x0000030d       0x6a C:/QNX650/host/win32/x86/usr/lib/gcc/arm-unknown-nto-qnx6.5.0/4.4.2//libgcc.a(_clz.o)

.debug_line     0x00000000      0x22d
 *(.debug_line)
 .debug_line    0x00000000       0xe7 C:/QNX650/host/win32/x86/usr/lib/gcc/arm-unknown-nto-qnx6.5.0/4.4.2//libgcc.a(_udivdi3.o)
 .debug_line    0x000000e7       0xf8 C:/QNX650/host/win32/x86/usr/lib/gcc/arm-unknown-nto-qnx6.5.0/4.4.2//libgcc.a(_umoddi3.o)
 .debug_line    0x000001df       0x4e C:/QNX650/host/win32/x86/usr/lib/gcc/arm-unknown-nto-qnx6.5.0/4.4.2//libgcc.a(_clz.o)

.debug_frame    0x00000000       0xe0
 *(.debug_frame)
 .debug_frame   0x00000000       0x28 C:/QNX650/host/win32/x86/usr/lib/gcc/arm-unknown-nto-qnx6.5.0/4.4.2//libgcc.a(_udivsi3.o)
 .debug_frame   0x00000028       0x48 C:/QNX650/host/win32/x86/usr/lib/gcc/arm-unknown-nto-qnx6.5.0/4.4.2//libgcc.a(_udivdi3.o)
 .debug_frame   0x00000070       0x48 C:/QNX650/host/win32/x86/usr/lib/gcc/arm-unknown-nto-qnx6.5.0/4.4.2//libgcc.a(_umoddi3.o)
 .debug_frame   0x000000b8       0x28 C:/QNX650/host/win32/x86/usr/lib/gcc/arm-unknown-nto-qnx6.5.0/4.4.2//libgcc.a(_umodsi3.o)

.debug_str      0x00000000      0x4d8
 *(.debug_str)
 .debug_str     0x00000000      0x1c7 C:/QNX650/host/win32/x86/usr/lib/gcc/arm-unknown-nto-qnx6.5.0/4.4.2//libgcc.a(_udivdi3.o)
 .debug_str     0x000001c7      0x1c7 C:/QNX650/host/win32/x86/usr/lib/gcc/arm-unknown-nto-qnx6.5.0/4.4.2//libgcc.a(_umoddi3.o)
 .debug_str     0x0000038e      0x14a C:/QNX650/host/win32/x86/usr/lib/gcc/arm-unknown-nto-qnx6.5.0/4.4.2//libgcc.a(_clz.o)

.debug_loc      0x00000000      0xd06
 *(.debug_loc)
 .debug_loc     0x00000000      0x6f2 C:/QNX650/host/win32/x86/usr/lib/gcc/arm-unknown-nto-qnx6.5.0/4.4.2//libgcc.a(_udivdi3.o)
 .debug_loc     0x000006f2      0x614 C:/QNX650/host/win32/x86/usr/lib/gcc/arm-unknown-nto-qnx6.5.0/4.4.2//libgcc.a(_umoddi3.o)

.debug_macinfo
 *(.debug_macinfo)

.debug_weaknames
 *(.debug_weaknames)

.debug_funcnames
 *(.debug_funcnames)

.debug_typenames
 *(.debug_typenames)

.debug_varnames
 *(.debug_varnames)

.debug_pubtypes
 *(.debug_pubtypes)

.debug_ranges   0x00000000      0x228
 *(.debug_ranges)
 .debug_ranges  0x00000000      0x110 C:/QNX650/host/win32/x86/usr/lib/gcc/arm-unknown-nto-qnx6.5.0/4.4.2//libgcc.a(_udivdi3.o)
 .debug_ranges  0x00000110      0x118 C:/QNX650/host/win32/x86/usr/lib/gcc/arm-unknown-nto-qnx6.5.0/4.4.2//libgcc.a(_umoddi3.o)

.stack
 *(.stack)

.gnu.attributes
 *(.gnu.attributes)
OUTPUT(D:/Study/Raspberry/QNX/ide-4.7-workspace/Bsp_Rasp/src/hardware/startup/boards/bcm2835/arm/le/startup-bcm2835 elf32-littlearm)

.ARM.attributes
                0x00000000       0x10
 .ARM.attributes
                0x00000000       0x10 init_asinfo.o
 .ARM.attributes
                0x00000010       0x10 init_hwinfo.o
 .ARM.attributes
                0x00000020       0x10 init_intrinfo.o
 .ARM.attributes
                0x00000030       0x10 init_pio.o
 .ARM.attributes
                0x00000040       0x10 init_qtime_bcm2835.o
 .ARM.attributes
                0x00000050       0x10 init_raminfo.o
 .ARM.attributes
                0x00000060       0x10 main.o
 .ARM.attributes
                0x00000070       0x10 rtc_time.o
 .ARM.attributes
                0x00000080       0x10 D:/Study/Raspberry/QNX/ide-4.7-workspace/Bsp_Rasp/src/hardware/startup/lib/arm/a.le\libstartup.a(_main.o)
 .ARM.attributes
                0x00000090       0x10 D:/Study/Raspberry/QNX/ide-4.7-workspace/Bsp_Rasp/src/hardware/startup/lib/arm/a.le\libstartup.a(add_interrupt.o)
 .ARM.attributes
                0x000000a0       0x10 D:/Study/Raspberry/QNX/ide-4.7-workspace/Bsp_Rasp/src/hardware/startup/lib/arm/a.le\libstartup.a(alloc_qtime.o)
 .ARM.attributes
                0x000000b0       0x10 D:/Study/Raspberry/QNX/ide-4.7-workspace/Bsp_Rasp/src/hardware/startup/lib/arm/a.le\libstartup.a(board_init.o)
 .ARM.attributes
                0x000000c0       0x10 D:/Study/Raspberry/QNX/ide-4.7-workspace/Bsp_Rasp/src/hardware/startup/lib/arm/a.le\libstartup.a(callout_debug_bcm2835.o)
 .ARM.attributes
                0x000000d0       0x10 D:/Study/Raspberry/QNX/ide-4.7-workspace/Bsp_Rasp/src/hardware/startup/lib/arm/a.le\libstartup.a(callout_interrupt_bcm2835.o)
 .ARM.attributes
                0x000000e0       0x10 D:/Study/Raspberry/QNX/ide-4.7-workspace/Bsp_Rasp/src/hardware/startup/lib/arm/a.le\libstartup.a(callout_reboot_at91sam9xx.o)
 .ARM.attributes
                0x000000f0       0x10 D:/Study/Raspberry/QNX/ide-4.7-workspace/Bsp_Rasp/src/hardware/startup/lib/arm/a.le\libstartup.a(callout_timer_bcm2835.o)
 .ARM.attributes
                0x00000100       0x10 D:/Study/Raspberry/QNX/ide-4.7-workspace/Bsp_Rasp/src/hardware/startup/lib/arm/a.le\libstartup.a(callouts.o)
 .ARM.attributes
                0x00000110       0x10 D:/Study/Raspberry/QNX/ide-4.7-workspace/Bsp_Rasp/src/hardware/startup/lib/arm/a.le\libstartup.a(common_options.o)
 .ARM.attributes
                0x00000120       0x10 D:/Study/Raspberry/QNX/ide-4.7-workspace/Bsp_Rasp/src/hardware/startup/lib/arm/a.le\libstartup.a(cpu_common_options.o)
 .ARM.attributes
                0x00000130       0x10 D:/Study/Raspberry/QNX/ide-4.7-workspace/Bsp_Rasp/src/hardware/startup/lib/arm/a.le\libstartup.a(cpu_startup.o)
 .ARM.attributes
                0x00000140       0x10 D:/Study/Raspberry/QNX/ide-4.7-workspace/Bsp_Rasp/src/hardware/startup/lib/arm/a.le\libstartup.a(cstart.o)
 .ARM.attributes
                0x00000150       0x10 D:/Study/Raspberry/QNX/ide-4.7-workspace/Bsp_Rasp/src/hardware/startup/lib/arm/a.le\libstartup.a(debug.o)
 .ARM.attributes
                0x00000160       0x10 D:/Study/Raspberry/QNX/ide-4.7-workspace/Bsp_Rasp/src/hardware/startup/lib/arm/a.le\libstartup.a(getopt.o)
 .ARM.attributes
                0x00000170       0x10 D:/Study/Raspberry/QNX/ide-4.7-workspace/Bsp_Rasp/src/hardware/startup/lib/arm/a.le\libstartup.a(getsize.o)
 .ARM.attributes
                0x00000180       0x10 D:/Study/Raspberry/QNX/ide-4.7-workspace/Bsp_Rasp/src/hardware/startup/lib/arm/a.le\libstartup.a(hw_serbcm2835debug.o)
 .ARM.attributes
                0x00000190       0x10 D:/Study/Raspberry/QNX/ide-4.7-workspace/Bsp_Rasp/src/hardware/startup/lib/arm/a.le\libstartup.a(hwi_add_nanospin.o)
 .ARM.attributes
                0x000001a0       0x10 D:/Study/Raspberry/QNX/ide-4.7-workspace/Bsp_Rasp/src/hardware/startup/lib/arm/a.le\libstartup.a(hwi_alloc.o)
 .ARM.attributes
                0x000001b0       0x10 D:/Study/Raspberry/QNX/ide-4.7-workspace/Bsp_Rasp/src/hardware/startup/lib/arm/a.le\libstartup.a(init_cacheattr.o)
 .ARM.attributes
                0x000001c0       0x10 D:/Study/Raspberry/QNX/ide-4.7-workspace/Bsp_Rasp/src/hardware/startup/lib/arm/a.le\libstartup.a(init_cpuinfo.o)
 .ARM.attributes
                0x000001d0       0x10 D:/Study/Raspberry/QNX/ide-4.7-workspace/Bsp_Rasp/src/hardware/startup/lib/arm/a.le\libstartup.a(init_mmu.o)
 .ARM.attributes
                0x000001e0       0x10 D:/Study/Raspberry/QNX/ide-4.7-workspace/Bsp_Rasp/src/hardware/startup/lib/arm/a.le\libstartup.a(init_system_private.o)
 .ARM.attributes
                0x000001f0       0x10 D:/Study/Raspberry/QNX/ide-4.7-workspace/Bsp_Rasp/src/hardware/startup/lib/arm/a.le\libstartup.a(jtag.o)
 .ARM.attributes
                0x00000200       0x10 D:/Study/Raspberry/QNX/ide-4.7-workspace/Bsp_Rasp/src/hardware/startup/lib/arm/a.le\libstartup.a(kprintf.o)
 .ARM.attributes
                0x00000210       0x10 D:/Study/Raspberry/QNX/ide-4.7-workspace/Bsp_Rasp/src/hardware/startup/lib/arm/a.le\libstartup.a(load_ifs.o)
 .ARM.attributes
                0x00000220       0x10 D:/Study/Raspberry/QNX/ide-4.7-workspace/Bsp_Rasp/src/hardware/startup/lib/arm/a.le\libstartup.a(map_callout_io.o)
 .ARM.attributes
                0x00000230       0x10 D:/Study/Raspberry/QNX/ide-4.7-workspace/Bsp_Rasp/src/hardware/startup/lib/arm/a.le\libstartup.a(map_startup_io.o)
 .ARM.attributes
                0x00000240       0x10 D:/Study/Raspberry/QNX/ide-4.7-workspace/Bsp_Rasp/src/hardware/startup/lib/arm/a.le\libstartup.a(map_startup_mem.o)
 .ARM.attributes
                0x00000250       0x10 D:/Study/Raspberry/QNX/ide-4.7-workspace/Bsp_Rasp/src/hardware/startup/lib/arm/a.le\libstartup.a(memfuncs.o)
 .ARM.attributes
                0x00000260       0x10 D:/Study/Raspberry/QNX/ide-4.7-workspace/Bsp_Rasp/src/hardware/startup/lib/arm/a.le\libstartup.a(memmove.o)
 .ARM.attributes
                0x00000270       0x10 D:/Study/Raspberry/QNX/ide-4.7-workspace/Bsp_Rasp/src/hardware/startup/lib/arm/a.le\libstartup.a(print_sysp.o)
 .ARM.attributes
                0x00000280       0x10 D:/Study/Raspberry/QNX/ide-4.7-workspace/Bsp_Rasp/src/hardware/startup/lib/arm/a.le\libstartup.a(ram.o)
 .ARM.attributes
                0x00000290       0x10 D:/Study/Raspberry/QNX/ide-4.7-workspace/Bsp_Rasp/src/hardware/startup/lib/arm/a.le\libstartup.a(restore_ifs.o)
 .ARM.attributes
                0x000002a0       0x10 D:/Study/Raspberry/QNX/ide-4.7-workspace/Bsp_Rasp/src/hardware/startup/lib/arm/a.le\libstartup.a(rtc_time.o)
 .ARM.attributes
                0x000002b0       0x10 D:/Study/Raspberry/QNX/ide-4.7-workspace/Bsp_Rasp/src/hardware/startup/lib/arm/a.le\libstartup.a(startnext.o)
 .ARM.attributes
                0x000002c0       0x10 D:/Study/Raspberry/QNX/ide-4.7-workspace/Bsp_Rasp/src/hardware/startup/lib/arm/a.le\libstartup.a(startup_info.o)
 .ARM.attributes
                0x000002d0       0x10 D:/Study/Raspberry/QNX/ide-4.7-workspace/Bsp_Rasp/src/hardware/startup/lib/arm/a.le\libstartup.a(strings.o)
 .ARM.attributes
                0x000002e0       0x10 D:/Study/Raspberry/QNX/ide-4.7-workspace/Bsp_Rasp/src/hardware/startup/lib/arm/a.le\libstartup.a(strtoul.o)
 .ARM.attributes
                0x000002f0       0x10 D:/Study/Raspberry/QNX/ide-4.7-workspace/Bsp_Rasp/src/hardware/startup/lib/arm/a.le\libstartup.a(syspage_memory.o)
 .ARM.attributes
                0x00000300       0x10 D:/Study/Raspberry/QNX/ide-4.7-workspace/Bsp_Rasp/src/hardware/startup/lib/arm/a.le\libstartup.a(tweak_cmdline.o)
 .ARM.attributes
                0x00000310       0x10 D:/Study/Raspberry/QNX/ide-4.7-workspace/Bsp_Rasp/src/hardware/startup/lib/arm/a.le\libstartup.a(uncompress.o)
 .ARM.attributes
                0x00000320       0x10 D:/Study/Raspberry/QNX/ide-4.7-workspace/Bsp_Rasp/src/hardware/startup/lib/arm/a.le\libstartup.a(uncompress_ucl.o)
 .ARM.attributes
                0x00000330       0x10 D:/Study/Raspberry/QNX/ide-4.7-workspace/Bsp_Rasp/src/hardware/startup/lib/arm/a.le\libstartup.a(arm_cache.o)
 .ARM.attributes
                0x00000340       0x10 D:/Study/Raspberry/QNX/ide-4.7-workspace/Bsp_Rasp/src/hardware/startup/lib/arm/a.le\libstartup.a(arm_cpuspeed.o)
 .ARM.attributes
                0x00000350       0x10 D:/Study/Raspberry/QNX/ide-4.7-workspace/Bsp_Rasp/src/hardware/startup/lib/arm/a.le\libstartup.a(arm_map.o)
 .ARM.attributes
                0x00000360       0x10 D:/Study/Raspberry/QNX/ide-4.7-workspace/Bsp_Rasp/src/hardware/startup/lib/arm/a.le\libstartup.a(arm_pte.o)
 .ARM.attributes
                0x00000370       0x10 D:/Study/Raspberry/QNX/ide-4.7-workspace/Bsp_Rasp/src/hardware/startup/lib/arm/a.le\libstartup.a(armv_chip_detect.o)
 .ARM.attributes
                0x00000380       0x10 D:/Study/Raspberry/QNX/ide-4.7-workspace/Bsp_Rasp/src/hardware/startup/lib/arm/a.le\libstartup.a(armv_list.o)
 .ARM.attributes
                0x00000390       0x10 D:/Study/Raspberry/QNX/ide-4.7-workspace/Bsp_Rasp/src/hardware/startup/lib/arm/a.le\libstartup.a(as_add.o)
 .ARM.attributes
                0x000003a0       0x10 D:/Study/Raspberry/QNX/ide-4.7-workspace/Bsp_Rasp/src/hardware/startup/lib/arm/a.le\libstartup.a(as_add64.o)
 .ARM.attributes
                0x000003b0       0x10 D:/Study/Raspberry/QNX/ide-4.7-workspace/Bsp_Rasp/src/hardware/startup/lib/arm/a.le\libstartup.a(as_add_containing.o)
 .ARM.attributes
                0x000003c0       0x10 D:/Study/Raspberry/QNX/ide-4.7-workspace/Bsp_Rasp/src/hardware/startup/lib/arm/a.le\libstartup.a(as_default.o)
 .ARM.attributes
                0x000003d0       0x10 D:/Study/Raspberry/QNX/ide-4.7-workspace/Bsp_Rasp/src/hardware/startup/lib/arm/a.le\libstartup.a(as_find.o)
 .ARM.attributes
                0x000003e0       0x10 D:/Study/Raspberry/QNX/ide-4.7-workspace/Bsp_Rasp/src/hardware/startup/lib/arm/a.le\libstartup.a(as_find_containing.o)
 .ARM.attributes
                0x000003f0       0x10 D:/Study/Raspberry/QNX/ide-4.7-workspace/Bsp_Rasp/src/hardware/startup/lib/arm/a.le\libstartup.a(as_off2info.o)
 .ARM.attributes
                0x00000400       0x10 D:/Study/Raspberry/QNX/ide-4.7-workspace/Bsp_Rasp/src/hardware/startup/lib/arm/a.le\libstartup.a(board_cpu_startup.o)
 .ARM.attributes
                0x00000410       0x10 D:/Study/Raspberry/QNX/ide-4.7-workspace/Bsp_Rasp/src/hardware/startup/lib/arm/a.le\libstartup.a(cpu_startnext.o)
 .ARM.attributes
                0x00000420       0x10 D:/Study/Raspberry/QNX/ide-4.7-workspace/Bsp_Rasp/src/hardware/startup/lib/arm/a.le\libstartup.a(cpu_syspage_memory.o)
 .ARM.attributes
                0x00000430       0x10 D:/Study/Raspberry/QNX/ide-4.7-workspace/Bsp_Rasp/src/hardware/startup/lib/arm/a.le\libstartup.a(crash_done.o)
 .ARM.attributes
                0x00000440       0x10 D:/Study/Raspberry/QNX/ide-4.7-workspace/Bsp_Rasp/src/hardware/startup/lib/arm/a.le\libstartup.a(dummy_print_char.o)
 .ARM.attributes
                0x00000450       0x10 D:/Study/Raspberry/QNX/ide-4.7-workspace/Bsp_Rasp/src/hardware/startup/lib/arm/a.le\libstartup.a(elf.o)
 .ARM.attributes
                0x00000460       0x10 D:/Study/Raspberry/QNX/ide-4.7-workspace/Bsp_Rasp/src/hardware/startup/lib/arm/a.le\libstartup.a(elf_map.o)
 .ARM.attributes
                0x00000470       0x10 D:/Study/Raspberry/QNX/ide-4.7-workspace/Bsp_Rasp/src/hardware/startup/lib/arm/a.le\libstartup.a(hwi_add_device.o)
 .ARM.attributes
                0x00000480       0x10 D:/Study/Raspberry/QNX/ide-4.7-workspace/Bsp_Rasp/src/hardware/startup/lib/arm/a.le\libstartup.a(hwi_default.o)
 .ARM.attributes
                0x00000490       0x10 D:/Study/Raspberry/QNX/ide-4.7-workspace/Bsp_Rasp/src/hardware/startup/lib/arm/a.le\libstartup.a(mdriver_max.o)
 .ARM.attributes
                0x000004a0       0x10 D:/Study/Raspberry/QNX/ide-4.7-workspace/Bsp_Rasp/src/hardware/startup/lib/arm/a.le\libstartup.a(memcpy.o)
 .ARM.attributes
                0x000004b0       0x10 D:/Study/Raspberry/QNX/ide-4.7-workspace/Bsp_Rasp/src/hardware/startup/lib/arm/a.le\libstartup.a(timer_ns2tick.o)
 .ARM.attributes
                0x000004c0       0x10 D:/Study/Raspberry/QNX/ide-4.7-workspace/Bsp_Rasp/src/hardware/startup/lib/arm/a.le\libstartup.a(timer_tick2ns.o)
 .ARM.attributes
                0x000004d0       0x10 D:/Study/Raspberry/QNX/ide-4.7-workspace/Bsp_Rasp/src/hardware/startup/lib/arm/a.le\libstartup.a(vstart_v4.o)
 .ARM.attributes
                0x000004e0       0x10 D:/Study/Raspberry/QNX/ide-4.7-workspace/Bsp_Rasp/src/hardware/startup/lib/arm/a.le\libstartup.a(add_cache.o)
 .ARM.attributes
                0x000004f0       0x10 D:/Study/Raspberry/QNX/ide-4.7-workspace/Bsp_Rasp/src/hardware/startup/lib/arm/a.le\libstartup.a(armv_chip_1020.o)
 .ARM.attributes
                0x00000500       0x10 D:/Study/Raspberry/QNX/ide-4.7-workspace/Bsp_Rasp/src/hardware/startup/lib/arm/a.le\libstartup.a(armv_chip_1022.o)
 .ARM.attributes
                0x00000510       0x10 D:/Study/Raspberry/QNX/ide-4.7-workspace/Bsp_Rasp/src/hardware/startup/lib/arm/a.le\libstartup.a(armv_chip_1136.o)
 .ARM.attributes
                0x00000520       0x10 D:/Study/Raspberry/QNX/ide-4.7-workspace/Bsp_Rasp/src/hardware/startup/lib/arm/a.le\libstartup.a(armv_chip_1176.o)
 .ARM.attributes
                0x00000530       0x10 D:/Study/Raspberry/QNX/ide-4.7-workspace/Bsp_Rasp/src/hardware/startup/lib/arm/a.le\libstartup.a(armv_chip_1200.o)
 .ARM.attributes
                0x00000540       0x10 D:/Study/Raspberry/QNX/ide-4.7-workspace/Bsp_Rasp/src/hardware/startup/lib/arm/a.le\libstartup.a(armv_chip_23xx.o)
 .ARM.attributes
                0x00000550       0x10 D:/Study/Raspberry/QNX/ide-4.7-workspace/Bsp_Rasp/src/hardware/startup/lib/arm/a.le\libstartup.a(armv_chip_2400.o)
 .ARM.attributes
                0x00000560       0x10 D:/Study/Raspberry/QNX/ide-4.7-workspace/Bsp_Rasp/src/hardware/startup/lib/arm/a.le\libstartup.a(armv_chip_2800.o)
 .ARM.attributes
                0x00000570       0x10 D:/Study/Raspberry/QNX/ide-4.7-workspace/Bsp_Rasp/src/hardware/startup/lib/arm/a.le\libstartup.a(armv_chip_425.o)
 .ARM.attributes
                0x00000580       0x10 D:/Study/Raspberry/QNX/ide-4.7-workspace/Bsp_Rasp/src/hardware/startup/lib/arm/a.le\libstartup.a(armv_chip_465.o)
 .ARM.attributes
                0x00000590       0x10 D:/Study/Raspberry/QNX/ide-4.7-workspace/Bsp_Rasp/src/hardware/startup/lib/arm/a.le\libstartup.a(armv_chip_720.o)
 .ARM.attributes
                0x000005a0       0x10 D:/Study/Raspberry/QNX/ide-4.7-workspace/Bsp_Rasp/src/hardware/startup/lib/arm/a.le\libstartup.a(armv_chip_80200.o)
 .ARM.attributes
                0x000005b0       0x10 D:/Study/Raspberry/QNX/ide-4.7-workspace/Bsp_Rasp/src/hardware/startup/lib/arm/a.le\libstartup.a(armv_chip_920.o)
 .ARM.attributes
                0x000005c0       0x10 D:/Study/Raspberry/QNX/ide-4.7-workspace/Bsp_Rasp/src/hardware/startup/lib/arm/a.le\libstartup.a(armv_chip_922.o)
 .ARM.attributes
                0x000005d0       0x10 D:/Study/Raspberry/QNX/ide-4.7-workspace/Bsp_Rasp/src/hardware/startup/lib/arm/a.le\libstartup.a(armv_chip_925.o)
 .ARM.attributes
                0x000005e0       0x10 D:/Study/Raspberry/QNX/ide-4.7-workspace/Bsp_Rasp/src/hardware/startup/lib/arm/a.le\libstartup.a(armv_chip_926.o)
 .ARM.attributes
                0x000005f0       0x10 D:/Study/Raspberry/QNX/ide-4.7-workspace/Bsp_Rasp/src/hardware/startup/lib/arm/a.le\libstartup.a(armv_chip_a15.o)
 .ARM.attributes
                0x00000600       0x10 D:/Study/Raspberry/QNX/ide-4.7-workspace/Bsp_Rasp/src/hardware/startup/lib/arm/a.le\libstartup.a(armv_chip_a8.o)
 .ARM.attributes
                0x00000610       0x10 D:/Study/Raspberry/QNX/ide-4.7-workspace/Bsp_Rasp/src/hardware/startup/lib/arm/a.le\libstartup.a(armv_chip_a9.o)
 .ARM.attributes
                0x00000620       0x10 D:/Study/Raspberry/QNX/ide-4.7-workspace/Bsp_Rasp/src/hardware/startup/lib/arm/a.le\libstartup.a(armv_chip_mp11.o)
 .ARM.attributes
                0x00000630       0x10 D:/Study/Raspberry/QNX/ide-4.7-workspace/Bsp_Rasp/src/hardware/startup/lib/arm/a.le\libstartup.a(armv_chip_pxa210b.o)
 .ARM.attributes
                0x00000640       0x10 D:/Study/Raspberry/QNX/ide-4.7-workspace/Bsp_Rasp/src/hardware/startup/lib/arm/a.le\libstartup.a(armv_chip_pxa210c.o)
 .ARM.attributes
                0x00000650       0x10 D:/Study/Raspberry/QNX/ide-4.7-workspace/Bsp_Rasp/src/hardware/startup/lib/arm/a.le\libstartup.a(armv_chip_pxa250a.o)
 .ARM.attributes
                0x00000660       0x10 D:/Study/Raspberry/QNX/ide-4.7-workspace/Bsp_Rasp/src/hardware/startup/lib/arm/a.le\libstartup.a(armv_chip_pxa250b.o)
 .ARM.attributes
                0x00000670       0x10 D:/Study/Raspberry/QNX/ide-4.7-workspace/Bsp_Rasp/src/hardware/startup/lib/arm/a.le\libstartup.a(armv_chip_pxa255.o)
 .ARM.attributes
                0x00000680       0x10 D:/Study/Raspberry/QNX/ide-4.7-workspace/Bsp_Rasp/src/hardware/startup/lib/arm/a.le\libstartup.a(armv_chip_pxa270.o)
 .ARM.attributes
                0x00000690       0x10 D:/Study/Raspberry/QNX/ide-4.7-workspace/Bsp_Rasp/src/hardware/startup/lib/arm/a.le\libstartup.a(armv_chip_sa1100.o)
 .ARM.attributes
                0x000006a0       0x10 D:/Study/Raspberry/QNX/ide-4.7-workspace/Bsp_Rasp/src/hardware/startup/lib/arm/a.le\libstartup.a(armv_chip_sa1110.o)
 .ARM.attributes
                0x000006b0       0x10 D:/Study/Raspberry/QNX/ide-4.7-workspace/Bsp_Rasp/src/hardware/startup/lib/arm/a.le\libstartup.a(armv_chip_sheeva.o)
 .ARM.attributes
                0x000006c0       0x10 D:/Study/Raspberry/QNX/ide-4.7-workspace/Bsp_Rasp/src/hardware/startup/lib/arm/a.le\libstartup.a(armv_detect_a9.o)
 .ARM.attributes
                0x000006d0       0x10 D:/Study/Raspberry/QNX/ide-4.7-workspace/Bsp_Rasp/src/hardware/startup/lib/arm/a.le\libstartup.a(armv_detect_sheeva.o)
 .ARM.attributes
                0x000006e0       0x10 D:/Study/Raspberry/QNX/ide-4.7-workspace/Bsp_Rasp/src/hardware/startup/lib/arm/a.le\libstartup.a(armv_pte_ixp2xxx.o)
 .ARM.attributes
                0x000006f0       0x10 D:/Study/Raspberry/QNX/ide-4.7-workspace/Bsp_Rasp/src/hardware/startup/lib/arm/a.le\libstartup.a(armv_pte_v4wb.o)
 .ARM.attributes
                0x00000700       0x10 D:/Study/Raspberry/QNX/ide-4.7-workspace/Bsp_Rasp/src/hardware/startup/lib/arm/a.le\libstartup.a(armv_pte_v4wt.o)
 .ARM.attributes
                0x00000710       0x10 D:/Study/Raspberry/QNX/ide-4.7-workspace/Bsp_Rasp/src/hardware/startup/lib/arm/a.le\libstartup.a(armv_pte_v5wa.o)
 .ARM.attributes
                0x00000720       0x10 D:/Study/Raspberry/QNX/ide-4.7-workspace/Bsp_Rasp/src/hardware/startup/lib/arm/a.le\libstartup.a(armv_pte_v5wb.o)
 .ARM.attributes
                0x00000730       0x10 D:/Study/Raspberry/QNX/ide-4.7-workspace/Bsp_Rasp/src/hardware/startup/lib/arm/a.le\libstartup.a(armv_pte_v5wt.o)
 .ARM.attributes
                0x00000740       0x10 D:/Study/Raspberry/QNX/ide-4.7-workspace/Bsp_Rasp/src/hardware/startup/lib/arm/a.le\libstartup.a(armv_pte_v6mp.o)
 .ARM.attributes
                0x00000750       0x10 D:/Study/Raspberry/QNX/ide-4.7-workspace/Bsp_Rasp/src/hardware/startup/lib/arm/a.le\libstartup.a(armv_pte_v6wb.o)
 .ARM.attributes
                0x00000760       0x10 D:/Study/Raspberry/QNX/ide-4.7-workspace/Bsp_Rasp/src/hardware/startup/lib/arm/a.le\libstartup.a(armv_pte_v6wt.o)
 .ARM.attributes
                0x00000770       0x10 D:/Study/Raspberry/QNX/ide-4.7-workspace/Bsp_Rasp/src/hardware/startup/lib/arm/a.le\libstartup.a(armv_pte_v7mp.o)
 .ARM.attributes
                0x00000780       0x10 D:/Study/Raspberry/QNX/ide-4.7-workspace/Bsp_Rasp/src/hardware/startup/lib/arm/a.le\libstartup.a(armv_pte_v7wa.o)
 .ARM.attributes
                0x00000790       0x10 D:/Study/Raspberry/QNX/ide-4.7-workspace/Bsp_Rasp/src/hardware/startup/lib/arm/a.le\libstartup.a(armv_pte_v7wb.o)
 .ARM.attributes
                0x000007a0       0x10 D:/Study/Raspberry/QNX/ide-4.7-workspace/Bsp_Rasp/src/hardware/startup/lib/arm/a.le\libstartup.a(armv_pte_v7wt.o)
 .ARM.attributes
                0x000007b0       0x10 D:/Study/Raspberry/QNX/ide-4.7-workspace/Bsp_Rasp/src/hardware/startup/lib/arm/a.le\libstartup.a(armv_pte_xsc3.o)
 .ARM.attributes
                0x000007c0       0x10 D:/Study/Raspberry/QNX/ide-4.7-workspace/Bsp_Rasp/src/hardware/startup/lib/arm/a.le\libstartup.a(armv_setup_1136.o)
 .ARM.attributes
                0x000007d0       0x10 D:/Study/Raspberry/QNX/ide-4.7-workspace/Bsp_Rasp/src/hardware/startup/lib/arm/a.le\libstartup.a(armv_setup_a15.o)
 .ARM.attributes
                0x000007e0       0x10 D:/Study/Raspberry/QNX/ide-4.7-workspace/Bsp_Rasp/src/hardware/startup/lib/arm/a.le\libstartup.a(armv_setup_a8.o)
 .ARM.attributes
                0x000007f0       0x10 D:/Study/Raspberry/QNX/ide-4.7-workspace/Bsp_Rasp/src/hardware/startup/lib/arm/a.le\libstartup.a(armv_setup_mp11.o)
 .ARM.attributes
                0x00000800       0x10 D:/Study/Raspberry/QNX/ide-4.7-workspace/Bsp_Rasp/src/hardware/startup/lib/arm/a.le\libstartup.a(armv_setup_v6.o)
 .ARM.attributes
                0x00000810       0x10 D:/Study/Raspberry/QNX/ide-4.7-workspace/Bsp_Rasp/src/hardware/startup/lib/arm/a.le\libstartup.a(armv_setup_v7.o)
 .ARM.attributes
                0x00000820       0x10 D:/Study/Raspberry/QNX/ide-4.7-workspace/Bsp_Rasp/src/hardware/startup/lib/arm/a.le\libstartup.a(armv_setup_xscale.o)
 .ARM.attributes
                0x00000830       0x10 D:/Study/Raspberry/QNX/ide-4.7-workspace/Bsp_Rasp/src/hardware/startup/lib/arm/a.le\libstartup.a(board_cpu_startnext.o)
 .ARM.attributes
                0x00000840       0x10 D:/Study/Raspberry/QNX/ide-4.7-workspace/Bsp_Rasp/src/hardware/startup/lib/arm/a.le\libstartup.a(callout_page_1020.o)
 .ARM.attributes
                0x00000850       0x10 D:/Study/Raspberry/QNX/ide-4.7-workspace/Bsp_Rasp/src/hardware/startup/lib/arm/a.le\libstartup.a(callout_page_1136.o)
 .ARM.attributes
                0x00000860       0x10 D:/Study/Raspberry/QNX/ide-4.7-workspace/Bsp_Rasp/src/hardware/startup/lib/arm/a.le\libstartup.a(callout_page_720.o)
 .ARM.attributes
                0x00000870       0x10 D:/Study/Raspberry/QNX/ide-4.7-workspace/Bsp_Rasp/src/hardware/startup/lib/arm/a.le\libstartup.a(callout_page_920.o)
 .ARM.attributes
                0x00000880       0x10 D:/Study/Raspberry/QNX/ide-4.7-workspace/Bsp_Rasp/src/hardware/startup/lib/arm/a.le\libstartup.a(callout_page_925.o)
 .ARM.attributes
                0x00000890       0x10 D:/Study/Raspberry/QNX/ide-4.7-workspace/Bsp_Rasp/src/hardware/startup/lib/arm/a.le\libstartup.a(callout_page_a15.o)
 .ARM.attributes
                0x000008a0       0x10 D:/Study/Raspberry/QNX/ide-4.7-workspace/Bsp_Rasp/src/hardware/startup/lib/arm/a.le\libstartup.a(callout_page_a8.o)
 .ARM.attributes
                0x000008b0       0x10 D:/Study/Raspberry/QNX/ide-4.7-workspace/Bsp_Rasp/src/hardware/startup/lib/arm/a.le\libstartup.a(callout_page_mp11.o)
 .ARM.attributes
                0x000008c0       0x10 D:/Study/Raspberry/QNX/ide-4.7-workspace/Bsp_Rasp/src/hardware/startup/lib/arm/a.le\libstartup.a(callout_page_sa.o)
 .ARM.attributes
                0x000008d0       0x10 D:/Study/Raspberry/QNX/ide-4.7-workspace/Bsp_Rasp/src/hardware/startup/lib/arm/a.le\libstartup.a(callout_page_xsc3.o)
 .ARM.attributes
                0x000008e0       0x10 D:/Study/Raspberry/QNX/ide-4.7-workspace/Bsp_Rasp/src/hardware/startup/lib/arm/a.le\libstartup.a(callout_page_xscale.o)
 .ARM.attributes
                0x000008f0       0x10 D:/Study/Raspberry/QNX/ide-4.7-workspace/Bsp_Rasp/src/hardware/startup/lib/arm/a.le\libstartup.a(callout_power_926.o)
 .ARM.attributes
                0x00000900       0x10 D:/Study/Raspberry/QNX/ide-4.7-workspace/Bsp_Rasp/src/hardware/startup/lib/arm/a.le\libstartup.a(callout_power_cp15_wfi.o)
 .ARM.attributes
                0x00000910       0x10 D:/Study/Raspberry/QNX/ide-4.7-workspace/Bsp_Rasp/src/hardware/startup/lib/arm/a.le\libstartup.a(callout_power_sa1100.o)
 .ARM.attributes
                0x00000920       0x10 D:/Study/Raspberry/QNX/ide-4.7-workspace/Bsp_Rasp/src/hardware/startup/lib/arm/a.le\libstartup.a(callout_power_v7_wfi.o)
 .ARM.attributes
                0x00000930       0x10 D:/Study/Raspberry/QNX/ide-4.7-workspace/Bsp_Rasp/src/hardware/startup/lib/arm/a.le\libstartup.a(callout_power_xscale.o)
 .ARM.attributes
                0x00000940       0x10 D:/Study/Raspberry/QNX/ide-4.7-workspace/Bsp_Rasp/src/hardware/startup/lib/arm/a.le\libstartup.a(vstart_v6.o)
 .ARM.attributes
                0x00000950       0x10 D:/Study/Raspberry/QNX/ide-4.7-workspace/Bsp_Rasp/src/hardware/startup/lib/arm/a.le\libstartup.a(vstart_v7.o)
 .ARM.attributes
                0x00000960       0x10 D:/Study/Raspberry/QNX/ide-4.7-workspace/Bsp_Rasp/src/hardware/startup/lib/arm/a.le\libstartup.a(arm_gic.o)
 .ARM.attributes
                0x00000970       0x10 D:/Study/Raspberry/QNX/ide-4.7-workspace/Bsp_Rasp/src/hardware/startup/lib/arm/a.le\libstartup.a(armv_cache_1020.o)
 .ARM.attributes
                0x00000980       0x10 D:/Study/Raspberry/QNX/ide-4.7-workspace/Bsp_Rasp/src/hardware/startup/lib/arm/a.le\libstartup.a(armv_cache_1136.o)
 .ARM.attributes
                0x00000990       0x10 D:/Study/Raspberry/QNX/ide-4.7-workspace/Bsp_Rasp/src/hardware/startup/lib/arm/a.le\libstartup.a(armv_cache_720.o)
 .ARM.attributes
                0x000009a0       0x10 D:/Study/Raspberry/QNX/ide-4.7-workspace/Bsp_Rasp/src/hardware/startup/lib/arm/a.le\libstartup.a(armv_cache_920.o)
 .ARM.attributes
                0x000009b0       0x10 D:/Study/Raspberry/QNX/ide-4.7-workspace/Bsp_Rasp/src/hardware/startup/lib/arm/a.le\libstartup.a(armv_cache_925.o)
 .ARM.attributes
                0x000009c0       0x10 D:/Study/Raspberry/QNX/ide-4.7-workspace/Bsp_Rasp/src/hardware/startup/lib/arm/a.le\libstartup.a(armv_cache_926.o)
 .ARM.attributes
                0x000009d0       0x10 D:/Study/Raspberry/QNX/ide-4.7-workspace/Bsp_Rasp/src/hardware/startup/lib/arm/a.le\libstartup.a(armv_cache_a15.o)
 .ARM.attributes
                0x000009e0       0x10 D:/Study/Raspberry/QNX/ide-4.7-workspace/Bsp_Rasp/src/hardware/startup/lib/arm/a.le\libstartup.a(armv_cache_a8.o)
 .ARM.attributes
                0x000009f0       0x10 D:/Study/Raspberry/QNX/ide-4.7-workspace/Bsp_Rasp/src/hardware/startup/lib/arm/a.le\libstartup.a(armv_cache_mp11.o)
 .ARM.attributes
                0x00000a00       0x10 D:/Study/Raspberry/QNX/ide-4.7-workspace/Bsp_Rasp/src/hardware/startup/lib/arm/a.le\libstartup.a(armv_cache_sa1100.o)
 .ARM.attributes
                0x00000a10       0x10 D:/Study/Raspberry/QNX/ide-4.7-workspace/Bsp_Rasp/src/hardware/startup/lib/arm/a.le\libstartup.a(armv_cache_xsc3.o)
 .ARM.attributes
                0x00000a20       0x10 D:/Study/Raspberry/QNX/ide-4.7-workspace/Bsp_Rasp/src/hardware/startup/lib/arm/a.le\libstartup.a(armv_cache_xscale.o)
 .ARM.attributes
                0x00000a30       0x10 D:/Study/Raspberry/QNX/ide-4.7-workspace/Bsp_Rasp/src/hardware/startup/lib/arm/a.le\libstartup.a(armv_chip_a9mp.o)
 .ARM.attributes
                0x00000a40       0x10 D:/Study/Raspberry/QNX/ide-4.7-workspace/Bsp_Rasp/src/hardware/startup/lib/arm/a.le\libstartup.a(armv_chip_a9up.o)
 .ARM.attributes
                0x00000a50       0x10 D:/Study/Raspberry/QNX/ide-4.7-workspace/Bsp_Rasp/src/hardware/startup/lib/arm/a.le\libstartup.a(armv_chip_sheeva_v6.o)
 .ARM.attributes
                0x00000a60       0x10 D:/Study/Raspberry/QNX/ide-4.7-workspace/Bsp_Rasp/src/hardware/startup/lib/arm/a.le\libstartup.a(armv_chip_sheeva_v7.o)
 .ARM.attributes
                0x00000a70       0x10 D:/Study/Raspberry/QNX/ide-4.7-workspace/Bsp_Rasp/src/hardware/startup/lib/arm/a.le\libstartup.a(armv_pte_v6wa.o)
 .ARM.attributes
                0x00000a80       0x10 D:/Study/Raspberry/QNX/ide-4.7-workspace/Bsp_Rasp/src/hardware/startup/lib/arm/a.le\libstartup.a(armv_setup_a9mp.o)
 .ARM.attributes
                0x00000a90       0x10 D:/Study/Raspberry/QNX/ide-4.7-workspace/Bsp_Rasp/src/hardware/startup/lib/arm/a.le\libstartup.a(armv_setup_a9up.o)
 .ARM.attributes
                0x00000aa0       0x10 D:/Study/Raspberry/QNX/ide-4.7-workspace/Bsp_Rasp/src/hardware/startup/lib/arm/a.le\libstartup.a(armv_setup_sheeva_v6.o)
 .ARM.attributes
                0x00000ab0       0x10 D:/Study/Raspberry/QNX/ide-4.7-workspace/Bsp_Rasp/src/hardware/startup/lib/arm/a.le\libstartup.a(armv_setup_sheeva_v7.o)
 .ARM.attributes
                0x00000ac0       0x10 D:/Study/Raspberry/QNX/ide-4.7-workspace/Bsp_Rasp/src/hardware/startup/lib/arm/a.le\libstartup.a(callout_cache_1020.o)
 .ARM.attributes
                0x00000ad0       0x10 D:/Study/Raspberry/QNX/ide-4.7-workspace/Bsp_Rasp/src/hardware/startup/lib/arm/a.le\libstartup.a(callout_cache_1136.o)
 .ARM.attributes
                0x00000ae0       0x10 D:/Study/Raspberry/QNX/ide-4.7-workspace/Bsp_Rasp/src/hardware/startup/lib/arm/a.le\libstartup.a(callout_cache_720.o)
 .ARM.attributes
                0x00000af0       0x10 D:/Study/Raspberry/QNX/ide-4.7-workspace/Bsp_Rasp/src/hardware/startup/lib/arm/a.le\libstartup.a(callout_cache_920.o)
 .ARM.attributes
                0x00000b00       0x10 D:/Study/Raspberry/QNX/ide-4.7-workspace/Bsp_Rasp/src/hardware/startup/lib/arm/a.le\libstartup.a(callout_cache_925.o)
 .ARM.attributes
                0x00000b10       0x10 D:/Study/Raspberry/QNX/ide-4.7-workspace/Bsp_Rasp/src/hardware/startup/lib/arm/a.le\libstartup.a(callout_cache_926.o)
 .ARM.attributes
                0x00000b20       0x10 D:/Study/Raspberry/QNX/ide-4.7-workspace/Bsp_Rasp/src/hardware/startup/lib/arm/a.le\libstartup.a(callout_cache_a15.o)
 .ARM.attributes
                0x00000b30       0x10 D:/Study/Raspberry/QNX/ide-4.7-workspace/Bsp_Rasp/src/hardware/startup/lib/arm/a.le\libstartup.a(callout_cache_a8.o)
 .ARM.attributes
                0x00000b40       0x10 D:/Study/Raspberry/QNX/ide-4.7-workspace/Bsp_Rasp/src/hardware/startup/lib/arm/a.le\libstartup.a(callout_cache_mp11.o)
 .ARM.attributes
                0x00000b50       0x10 D:/Study/Raspberry/QNX/ide-4.7-workspace/Bsp_Rasp/src/hardware/startup/lib/arm/a.le\libstartup.a(callout_cache_sa.o)
 .ARM.attributes
                0x00000b60       0x10 D:/Study/Raspberry/QNX/ide-4.7-workspace/Bsp_Rasp/src/hardware/startup/lib/arm/a.le\libstartup.a(callout_cache_xsc3.o)
 .ARM.attributes
                0x00000b70       0x10 D:/Study/Raspberry/QNX/ide-4.7-workspace/Bsp_Rasp/src/hardware/startup/lib/arm/a.le\libstartup.a(callout_cache_xscale.o)
 .ARM.attributes
                0x00000b80       0x10 D:/Study/Raspberry/QNX/ide-4.7-workspace/Bsp_Rasp/src/hardware/startup/lib/arm/a.le\libstartup.a(callout_page_a9mp.o)
 .ARM.attributes
                0x00000b90       0x10 D:/Study/Raspberry/QNX/ide-4.7-workspace/Bsp_Rasp/src/hardware/startup/lib/arm/a.le\libstartup.a(callout_page_a9up.o)
 .ARM.attributes
                0x00000ba0       0x10 D:/Study/Raspberry/QNX/ide-4.7-workspace/Bsp_Rasp/src/hardware/startup/lib/arm/a.le\libstartup.a(callout_page_sheeva_v6.o)
 .ARM.attributes
                0x00000bb0       0x10 D:/Study/Raspberry/QNX/ide-4.7-workspace/Bsp_Rasp/src/hardware/startup/lib/arm/a.le\libstartup.a(callout_page_sheeva_v7.o)
 .ARM.attributes
                0x00000bc0       0x10 D:/Study/Raspberry/QNX/ide-4.7-workspace/Bsp_Rasp/src/hardware/startup/lib/arm/a.le\libstartup.a(callout_power_sheeva_v6.o)
 .ARM.attributes
                0x00000bd0       0x10 D:/Study/Raspberry/QNX/ide-4.7-workspace/Bsp_Rasp/src/hardware/startup/lib/arm/a.le\libstartup.a(callout_power_sheeva_v7.o)
 .ARM.attributes
                0x00000be0       0x10 D:/Study/Raspberry/QNX/ide-4.7-workspace/Bsp_Rasp/src/hardware/startup/lib/arm/a.le\libstartup.a(armv_cache_a9mp.o)
 .ARM.attributes
                0x00000bf0       0x10 D:/Study/Raspberry/QNX/ide-4.7-workspace/Bsp_Rasp/src/hardware/startup/lib/arm/a.le\libstartup.a(armv_cache_a9up.o)
 .ARM.attributes
                0x00000c00       0x10 D:/Study/Raspberry/QNX/ide-4.7-workspace/Bsp_Rasp/src/hardware/startup/lib/arm/a.le\libstartup.a(armv_cache_sheeva_v6.o)
 .ARM.attributes
                0x00000c10       0x10 D:/Study/Raspberry/QNX/ide-4.7-workspace/Bsp_Rasp/src/hardware/startup/lib/arm/a.le\libstartup.a(armv_cache_sheeva_v7.o)
 .ARM.attributes
                0x00000c20       0x10 D:/Study/Raspberry/QNX/ide-4.7-workspace/Bsp_Rasp/src/hardware/startup/lib/arm/a.le\libstartup.a(callout_cache_a9mp.o)
 .ARM.attributes
                0x00000c30       0x10 D:/Study/Raspberry/QNX/ide-4.7-workspace/Bsp_Rasp/src/hardware/startup/lib/arm/a.le\libstartup.a(callout_cache_a9up.o)
 .ARM.attributes
                0x00000c40       0x10 D:/Study/Raspberry/QNX/ide-4.7-workspace/Bsp_Rasp/src/hardware/startup/lib/arm/a.le\libstartup.a(callout_cache_sheeva_v6.o)
 .ARM.attributes
                0x00000c50       0x10 D:/Study/Raspberry/QNX/ide-4.7-workspace/Bsp_Rasp/src/hardware/startup/lib/arm/a.le\libstartup.a(callout_cache_sheeva_v7.o)
 .ARM.attributes
                0x00000c60       0x10 C:/QNX650/target/qnx6/armle/usr/lib\libucl.a(n2b_d.o)
 .ARM.attributes
                0x00000c70       0x10 C:/QNX650/host/win32/x86/usr/lib/gcc/arm-unknown-nto-qnx6.5.0/4.4.2//libgcc.a(_udivsi3.o)
 .ARM.attributes
                0x00000c80       0x10 C:/QNX650/host/win32/x86/usr/lib/gcc/arm-unknown-nto-qnx6.5.0/4.4.2//libgcc.a(_dvmd_nto.o)
 .ARM.attributes
                0x00000c90       0x10 C:/QNX650/host/win32/x86/usr/lib/gcc/arm-unknown-nto-qnx6.5.0/4.4.2//libgcc.a(_udivdi3.o)
 .ARM.attributes
                0x00000ca0       0x10 C:/QNX650/host/win32/x86/usr/lib/gcc/arm-unknown-nto-qnx6.5.0/4.4.2//libgcc.a(_umoddi3.o)
 .ARM.attributes
                0x00000cb0       0x10 C:/QNX650/host/win32/x86/usr/lib/gcc/arm-unknown-nto-qnx6.5.0/4.4.2//libgcc.a(_umodsi3.o)
 .ARM.attributes
                0x00000cc0       0x10 C:/QNX650/host/win32/x86/usr/lib/gcc/arm-unknown-nto-qnx6.5.0/4.4.2//libgcc.a(_clz.o)
 .ARM.attributes
                0x00000cd0       0x10 C:/QNX650/target/qnx6/armle/lib\libc.a(hwi_find_item.o)
 .ARM.attributes
                0x00000ce0       0x10 C:/QNX650/target/qnx6/armle/lib\libc.a(hwi_off2tag.o)
 .ARM.attributes
                0x00000cf0       0x10 C:/QNX650/target/qnx6/armle/lib\libc.a(hwi_tag2off.o)
 .ARM.attributes
                0x00000d00       0x10 C:/QNX650/target/qnx6/armle/lib\libc.a(memcmp.o)
 .ARM.attributes
                0x00000d10       0x10 C:/QNX650/target/qnx6/armle/lib\libc.a(memset.o)
 .ARM.attributes
                0x00000d20       0x10 C:/QNX650/target/qnx6/armle/lib\libc.a(strchr.o)
 .ARM.attributes
                0x00000d30       0x10 C:/QNX650/target/qnx6/armle/lib\libc.a(strcmp.o)
 .ARM.attributes
                0x00000d40       0x10 C:/QNX650/target/qnx6/armle/lib\libc.a(strcpy.o)
 .ARM.attributes
                0x00000d50       0x10 C:/QNX650/target/qnx6/armle/lib\libc.a(__cpu_flags.o)
